
libWilsonFails.a(WilsonFails.o):	file format elf64-x86-64

SYMBOL TABLE:
0000000000000000 l    df *ABS*	0000000000000000 WilsonFermionInstantiationWilsonImplD.cc
0000000000000000 l    d  .text	0000000000000000 .text
0000000000000000 l    d  .text._ZN4Grid15FermionOperatorINS_10WilsonImplINS_9Grid_simdISt7complexIdENS_12Optimization3vecIdEEEENS_14FundamentalRepILi3EEENS_9CoeffRealEEEE4GridEv	0000000000000000 .text._ZN4Grid15FermionOperatorINS_10WilsonImplINS_9Grid_simdISt7complexIdENS_12Optimization3vecIdEEEENS_14FundamentalRepILi3EEENS_9CoeffRealEEEE4GridEv
0000000000000000 l    d  .text._ZN4Grid16SparseMatrixBaseINS_7LatticeINS_7iScalarINS_7iVectorINS3_INS_9Grid_simdISt7complexIdENS_12Optimization3vecIdEEEELi3EEELi4EEEEEEEE5MdagMERKSE_RSE_	0000000000000000 .text._ZN4Grid16SparseMatrixBaseINS_7LatticeINS_7iScalarINS_7iVectorINS3_INS_9Grid_simdISt7complexIdENS_12Optimization3vecIdEEEELi3EEELi4EEEEEEEE5MdagMERKSE_RSE_
0000000000000000 l    d  .gcc_except_table._ZN4Grid16SparseMatrixBaseINS_7LatticeINS_7iScalarINS_7iVectorINS3_INS_9Grid_simdISt7complexIdENS_12Optimization3vecIdEEEELi3EEELi4EEEEEEEE5MdagMERKSE_RSE_	0000000000000000 .gcc_except_table._ZN4Grid16SparseMatrixBaseINS_7LatticeINS_7iScalarINS_7iVectorINS3_INS_9Grid_simdISt7complexIdENS_12Optimization3vecIdEEEELi3EEELi4EEEEEEEE5MdagMERKSE_RSE_
0000000000000000 l       .gcc_except_table._ZN4Grid16SparseMatrixBaseINS_7LatticeINS_7iScalarINS_7iVectorINS3_INS_9Grid_simdISt7complexIdENS_12Optimization3vecIdEEEELi3EEELi4EEEEEEEE5MdagMERKSE_RSE_	0000000000000000 GCC_except_table1
0000000000000000 l    d  .text._ZN4Grid15FermionOperatorINS_10WilsonImplINS_9Grid_simdISt7complexIdENS_12Optimization3vecIdEEEENS_14FundamentalRepILi3EEENS_9CoeffRealEEEE5MdiagERKNS_7LatticeINS_7iScalarINS_7iVectorINSG_IS8_Li3EEELi4EEEEEEERSK_	0000000000000000 .text._ZN4Grid15FermionOperatorINS_10WilsonImplINS_9Grid_simdISt7complexIdENS_12Optimization3vecIdEEEENS_14FundamentalRepILi3EEENS_9CoeffRealEEEE5MdiagERKNS_7LatticeINS_7iScalarINS_7iVectorINSG_IS8_Li3EEELi4EEEEEEERSK_
0000000000000000 l    d  .text._ZN4Grid13WilsonFermionINS_10WilsonImplINS_9Grid_simdISt7complexIdENS_12Optimization3vecIdEEEENS_14FundamentalRepILi3EEENS_9CoeffRealEEEED2Ev	0000000000000000 .text._ZN4Grid13WilsonFermionINS_10WilsonImplINS_9Grid_simdISt7complexIdENS_12Optimization3vecIdEEEENS_14FundamentalRepILi3EEENS_9CoeffRealEEEED2Ev
0000000000000000 l    d  .gcc_except_table._ZN4Grid13WilsonFermionINS_10WilsonImplINS_9Grid_simdISt7complexIdENS_12Optimization3vecIdEEEENS_14FundamentalRepILi3EEENS_9CoeffRealEEEED2Ev	0000000000000000 .gcc_except_table._ZN4Grid13WilsonFermionINS_10WilsonImplINS_9Grid_simdISt7complexIdENS_12Optimization3vecIdEEEENS_14FundamentalRepILi3EEENS_9CoeffRealEEEED2Ev
0000000000000000 l       .gcc_except_table._ZN4Grid13WilsonFermionINS_10WilsonImplINS_9Grid_simdISt7complexIdENS_12Optimization3vecIdEEEENS_14FundamentalRepILi3EEENS_9CoeffRealEEEED2Ev	0000000000000000 GCC_except_table3
0000000000000000 l    d  .text._ZN4Grid13WilsonFermionINS_10WilsonImplINS_9Grid_simdISt7complexIdENS_12Optimization3vecIdEEEENS_14FundamentalRepILi3EEENS_9CoeffRealEEEED0Ev	0000000000000000 .text._ZN4Grid13WilsonFermionINS_10WilsonImplINS_9Grid_simdISt7complexIdENS_12Optimization3vecIdEEEENS_14FundamentalRepILi3EEENS_9CoeffRealEEEED0Ev
0000000000000000 l    d  .text._ZN4Grid15FermionOperatorINS_10WilsonImplINS_9Grid_simdISt7complexIdENS_12Optimization3vecIdEEEENS_14FundamentalRepILi3EEENS_9CoeffRealEEEE12RedBlackGridEv	0000000000000000 .text._ZN4Grid15FermionOperatorINS_10WilsonImplINS_9Grid_simdISt7complexIdENS_12Optimization3vecIdEEEENS_14FundamentalRepILi3EEENS_9CoeffRealEEEE12RedBlackGridEv
0000000000000000 l    d  .text._ZN4Grid13WilsonFermionINS_10WilsonImplINS_9Grid_simdISt7complexIdENS_12Optimization3vecIdEEEENS_14FundamentalRepILi3EEENS_9CoeffRealEEEE4MassEv	0000000000000000 .text._ZN4Grid13WilsonFermionINS_10WilsonImplINS_9Grid_simdISt7complexIdENS_12Optimization3vecIdEEEENS_14FundamentalRepILi3EEENS_9CoeffRealEEEE4MassEv
0000000000000000 l    d  .text._ZN4Grid30CheckerBoardedSparseMatrixBaseINS_7LatticeINS_7iScalarINS_7iVectorINS3_INS_9Grid_simdISt7complexIdENS_12Optimization3vecIdEEEELi3EEELi4EEEEEEEE7ConstEEEv	0000000000000000 .text._ZN4Grid30CheckerBoardedSparseMatrixBaseINS_7LatticeINS_7iScalarINS_7iVectorINS3_INS_9Grid_simdISt7complexIdENS_12Optimization3vecIdEEEELi3EEELi4EEEEEEEE7ConstEEEv
0000000000000000 l    d  .text._ZN4Grid13WilsonFermionINS_10WilsonImplINS_9Grid_simdISt7complexIdENS_12Optimization3vecIdEEEENS_14FundamentalRepILi3EEENS_9CoeffRealEEEE11isTrivialEEEv	0000000000000000 .text._ZN4Grid13WilsonFermionINS_10WilsonImplINS_9Grid_simdISt7complexIdENS_12Optimization3vecIdEEEENS_14FundamentalRepILi3EEENS_9CoeffRealEEEE11isTrivialEEEv
0000000000000000 l    d  .text._ZN4Grid13WilsonFermionINS_10WilsonImplINS_9Grid_simdISt7complexIdENS_12Optimization3vecIdEEEENS_14FundamentalRepILi3EEENS_9CoeffRealEEEE3tmpEv	0000000000000000 .text._ZN4Grid13WilsonFermionINS_10WilsonImplINS_9Grid_simdISt7complexIdENS_12Optimization3vecIdEEEENS_14FundamentalRepILi3EEENS_9CoeffRealEEEE3tmpEv
0000000000000000 l    d  .text._ZN4Grid15FermionOperatorINS_10WilsonImplINS_9Grid_simdISt7complexIdENS_12Optimization3vecIdEEEENS_14FundamentalRepILi3EEENS_9CoeffRealEEEE14DirichletBlockERKNS_17AcceleratorVectorIiLi8EEE	0000000000000000 .text._ZN4Grid15FermionOperatorINS_10WilsonImplINS_9Grid_simdISt7complexIdENS_12Optimization3vecIdEEEENS_14FundamentalRepILi3EEENS_9CoeffRealEEEE14DirichletBlockERKNS_17AcceleratorVectorIiLi8EEE
0000000000000000 l    d  .text._ZN4Grid13WilsonFermionINS_10WilsonImplINS_9Grid_simdISt7complexIdENS_12Optimization3vecIdEEEENS_14FundamentalRepILi3EEENS_9CoeffRealEEEE11FermionGridEv	0000000000000000 .text._ZN4Grid13WilsonFermionINS_10WilsonImplINS_9Grid_simdISt7complexIdENS_12Optimization3vecIdEEEENS_14FundamentalRepILi3EEENS_9CoeffRealEEEE11FermionGridEv
0000000000000000 l    d  .text._ZN4Grid13WilsonFermionINS_10WilsonImplINS_9Grid_simdISt7complexIdENS_12Optimization3vecIdEEEENS_14FundamentalRepILi3EEENS_9CoeffRealEEEE19FermionRedBlackGridEv	0000000000000000 .text._ZN4Grid13WilsonFermionINS_10WilsonImplINS_9Grid_simdISt7complexIdENS_12Optimization3vecIdEEEENS_14FundamentalRepILi3EEENS_9CoeffRealEEEE19FermionRedBlackGridEv
0000000000000000 l    d  .text._ZN4Grid13WilsonFermionINS_10WilsonImplINS_9Grid_simdISt7complexIdENS_12Optimization3vecIdEEEENS_14FundamentalRepILi3EEENS_9CoeffRealEEEE9GaugeGridEv	0000000000000000 .text._ZN4Grid13WilsonFermionINS_10WilsonImplINS_9Grid_simdISt7complexIdENS_12Optimization3vecIdEEEENS_14FundamentalRepILi3EEENS_9CoeffRealEEEE9GaugeGridEv
0000000000000000 l    d  .text._ZN4Grid13WilsonFermionINS_10WilsonImplINS_9Grid_simdISt7complexIdENS_12Optimization3vecIdEEEENS_14FundamentalRepILi3EEENS_9CoeffRealEEEE17GaugeRedBlackGridEv	0000000000000000 .text._ZN4Grid13WilsonFermionINS_10WilsonImplINS_9Grid_simdISt7complexIdENS_12Optimization3vecIdEEEENS_14FundamentalRepILi3EEENS_9CoeffRealEEEE17GaugeRedBlackGridEv
0000000000000000 l    d  .text._ZN4Grid15FermionOperatorINS_10WilsonImplINS_9Grid_simdISt7complexIdENS_12Optimization3vecIdEEEENS_14FundamentalRepILi3EEENS_9CoeffRealEEEE6MDerivERNS_7LatticeINS_7iVectorINS_7iScalarINS_7iMatrixIS8_Li3EEEEELi4EEEEERKNSE_INSG_INSF_INSF_IS8_Li3EEELi4EEEEEEESS_i	0000000000000000 .text._ZN4Grid15FermionOperatorINS_10WilsonImplINS_9Grid_simdISt7complexIdENS_12Optimization3vecIdEEEENS_14FundamentalRepILi3EEENS_9CoeffRealEEEE6MDerivERNS_7LatticeINS_7iVectorINS_7iScalarINS_7iMatrixIS8_Li3EEEEELi4EEEEERKNSE_INSG_INSF_INSF_IS8_Li3EEELi4EEEEEEESS_i
0000000000000000 l    d  .text._ZN4Grid15FermionOperatorINS_10WilsonImplINS_9Grid_simdISt7complexIdENS_12Optimization3vecIdEEEENS_14FundamentalRepILi3EEENS_9CoeffRealEEEE8MoeDerivERNS_7LatticeINS_7iVectorINS_7iScalarINS_7iMatrixIS8_Li3EEEEELi4EEEEERKNSE_INSG_INSF_INSF_IS8_Li3EEELi4EEEEEEESS_i	0000000000000000 .text._ZN4Grid15FermionOperatorINS_10WilsonImplINS_9Grid_simdISt7complexIdENS_12Optimization3vecIdEEEENS_14FundamentalRepILi3EEENS_9CoeffRealEEEE8MoeDerivERNS_7LatticeINS_7iVectorINS_7iScalarINS_7iMatrixIS8_Li3EEEEELi4EEEEERKNSE_INSG_INSF_INSF_IS8_Li3EEELi4EEEEEEESS_i
0000000000000000 l    d  .text._ZN4Grid15FermionOperatorINS_10WilsonImplINS_9Grid_simdISt7complexIdENS_12Optimization3vecIdEEEENS_14FundamentalRepILi3EEENS_9CoeffRealEEEE8MeoDerivERNS_7LatticeINS_7iVectorINS_7iScalarINS_7iMatrixIS8_Li3EEEEELi4EEEEERKNSE_INSG_INSF_INSF_IS8_Li3EEELi4EEEEEEESS_i	0000000000000000 .text._ZN4Grid15FermionOperatorINS_10WilsonImplINS_9Grid_simdISt7complexIdENS_12Optimization3vecIdEEEENS_14FundamentalRepILi3EEENS_9CoeffRealEEEE8MeoDerivERNS_7LatticeINS_7iVectorINS_7iScalarINS_7iMatrixIS8_Li3EEEEELi4EEEEERKNSE_INSG_INSF_INSF_IS8_Li3EEELi4EEEEEEESS_i
0000000000000000 l    d  .text._ZN4Grid15FermionOperatorINS_10WilsonImplINS_9Grid_simdISt7complexIdENS_12Optimization3vecIdEEEENS_14FundamentalRepILi3EEENS_9CoeffRealEEEE8MooDerivERNS_7LatticeINS_7iVectorINS_7iScalarINS_7iMatrixIS8_Li3EEEEELi4EEEEERKNSE_INSG_INSF_INSF_IS8_Li3EEELi4EEEEEEESS_i	0000000000000000 .text._ZN4Grid15FermionOperatorINS_10WilsonImplINS_9Grid_simdISt7complexIdENS_12Optimization3vecIdEEEENS_14FundamentalRepILi3EEENS_9CoeffRealEEEE8MooDerivERNS_7LatticeINS_7iVectorINS_7iScalarINS_7iMatrixIS8_Li3EEEEELi4EEEEERKNSE_INSG_INSF_INSF_IS8_Li3EEELi4EEEEEEESS_i
0000000000000000 l    d  .text._ZN4Grid15FermionOperatorINS_10WilsonImplINS_9Grid_simdISt7complexIdENS_12Optimization3vecIdEEEENS_14FundamentalRepILi3EEENS_9CoeffRealEEEE8MeeDerivERNS_7LatticeINS_7iVectorINS_7iScalarINS_7iMatrixIS8_Li3EEEEELi4EEEEERKNSE_INSG_INSF_INSF_IS8_Li3EEELi4EEEEEEESS_i	0000000000000000 .text._ZN4Grid15FermionOperatorINS_10WilsonImplINS_9Grid_simdISt7complexIdENS_12Optimization3vecIdEEEENS_14FundamentalRepILi3EEENS_9CoeffRealEEEE8MeeDerivERNS_7LatticeINS_7iVectorINS_7iScalarINS_7iMatrixIS8_Li3EEEEELi4EEEEERKNSE_INSG_INSF_INSF_IS8_Li3EEELi4EEEEEEESS_i
0000000000000000 l       .rodata.cst8	0000000000000000 .LCPI20_0
0000000000000008 l       .rodata.cst8	0000000000000000 .LCPI20_1
0000000000000000 l       .rodata.cst16	0000000000000000 .LCPI20_2
0000000000000010 l       .rodata.cst16	0000000000000000 .LCPI20_3
0000000000000020 l       .rodata.cst16	0000000000000000 .LCPI20_4
0000000000000030 l       .rodata.cst16	0000000000000000 .LCPI20_5
0000000000000040 l       .rodata.cst16	0000000000000000 .LCPI20_6
0000000000000000 l    d  .text._ZN4Grid15FermionOperatorINS_10WilsonImplINS_9Grid_simdISt7complexIdENS_12Optimization3vecIdEEEENS_14FundamentalRepILi3EEENS_9CoeffRealEEEE14FreePropagatorERKNS_7LatticeINS_7iScalarINS_7iVectorINSG_IS8_Li3EEELi4EEEEEEERSK_dSt6vectorIS4_SaIS4_EESO_IdSaIdEE	0000000000000000 .text._ZN4Grid15FermionOperatorINS_10WilsonImplINS_9Grid_simdISt7complexIdENS_12Optimization3vecIdEEEENS_14FundamentalRepILi3EEENS_9CoeffRealEEEE14FreePropagatorERKNS_7LatticeINS_7iScalarINS_7iVectorINSG_IS8_Li3EEELi4EEEEEEERSK_dSt6vectorIS4_SaIS4_EESO_IdSaIdEE
0000000000000000 l    d  .gcc_except_table._ZN4Grid15FermionOperatorINS_10WilsonImplINS_9Grid_simdISt7complexIdENS_12Optimization3vecIdEEEENS_14FundamentalRepILi3EEENS_9CoeffRealEEEE14FreePropagatorERKNS_7LatticeINS_7iScalarINS_7iVectorINSG_IS8_Li3EEELi4EEEEEEERSK_dSt6vectorIS4_SaIS4_EESO_IdSaIdEE	0000000000000000 .gcc_except_table._ZN4Grid15FermionOperatorINS_10WilsonImplINS_9Grid_simdISt7complexIdENS_12Optimization3vecIdEEEENS_14FundamentalRepILi3EEENS_9CoeffRealEEEE14FreePropagatorERKNS_7LatticeINS_7iScalarINS_7iVectorINSG_IS8_Li3EEELi4EEEEEEERSK_dSt6vectorIS4_SaIS4_EESO_IdSaIdEE
0000000000000000 l       .gcc_except_table._ZN4Grid15FermionOperatorINS_10WilsonImplINS_9Grid_simdISt7complexIdENS_12Optimization3vecIdEEEENS_14FundamentalRepILi3EEENS_9CoeffRealEEEE14FreePropagatorERKNS_7LatticeINS_7iScalarINS_7iVectorINSG_IS8_Li3EEELi4EEEEEEERSK_dSt6vectorIS4_SaIS4_EESO_IdSaIdEE	0000000000000000 GCC_except_table20
0000000000000010 l       .rodata.cst8	0000000000000000 .LCPI21_0
0000000000000000 l    d  .text._ZN4Grid15FermionOperatorINS_10WilsonImplINS_9Grid_simdISt7complexIdENS_12Optimization3vecIdEEEENS_14FundamentalRepILi3EEENS_9CoeffRealEEEE14FreePropagatorERKNS_7LatticeINS_7iScalarINS_7iVectorINSG_IS8_Li3EEELi4EEEEEEERSK_d	0000000000000000 .text._ZN4Grid15FermionOperatorINS_10WilsonImplINS_9Grid_simdISt7complexIdENS_12Optimization3vecIdEEEENS_14FundamentalRepILi3EEENS_9CoeffRealEEEE14FreePropagatorERKNS_7LatticeINS_7iScalarINS_7iVectorINSG_IS8_Li3EEELi4EEEEEEERSK_d
0000000000000000 l    d  .gcc_except_table._ZN4Grid15FermionOperatorINS_10WilsonImplINS_9Grid_simdISt7complexIdENS_12Optimization3vecIdEEEENS_14FundamentalRepILi3EEENS_9CoeffRealEEEE14FreePropagatorERKNS_7LatticeINS_7iScalarINS_7iVectorINSG_IS8_Li3EEELi4EEEEEEERSK_d	0000000000000000 .gcc_except_table._ZN4Grid15FermionOperatorINS_10WilsonImplINS_9Grid_simdISt7complexIdENS_12Optimization3vecIdEEEENS_14FundamentalRepILi3EEENS_9CoeffRealEEEE14FreePropagatorERKNS_7LatticeINS_7iScalarINS_7iVectorINSG_IS8_Li3EEELi4EEEEEEERSK_d
0000000000000000 l       .gcc_except_table._ZN4Grid15FermionOperatorINS_10WilsonImplINS_9Grid_simdISt7complexIdENS_12Optimization3vecIdEEEENS_14FundamentalRepILi3EEENS_9CoeffRealEEEE14FreePropagatorERKNS_7LatticeINS_7iScalarINS_7iVectorINSG_IS8_Li3EEELi4EEEEEEERSK_d	0000000000000000 GCC_except_table21
0000000000000050 l       .rodata.cst16	0000000000000000 .LCPI22_0
0000000000000000 l    d  .text._ZN4Grid13WilsonFermionINS_10WilsonImplINS_9Grid_simdISt7complexIdENS_12Optimization3vecIdEEEENS_14FundamentalRepILi3EEENS_9CoeffRealEEEE19SeqConservedCurrentERNS_7LatticeINS_7iScalarINS_7iMatrixINSG_IS8_Li3EEELi4EEEEEEESL_SL_NS_7CurrentEjjjRNSE_INSF_INSF_INSF_IS8_EEEEEEEE	0000000000000000 .text._ZN4Grid13WilsonFermionINS_10WilsonImplINS_9Grid_simdISt7complexIdENS_12Optimization3vecIdEEEENS_14FundamentalRepILi3EEENS_9CoeffRealEEEE19SeqConservedCurrentERNS_7LatticeINS_7iScalarINS_7iMatrixINSG_IS8_Li3EEELi4EEEEEEESL_SL_NS_7CurrentEjjjRNSE_INSF_INSF_INSF_IS8_EEEEEEEE
0000000000000000 l    d  .gcc_except_table._ZN4Grid13WilsonFermionINS_10WilsonImplINS_9Grid_simdISt7complexIdENS_12Optimization3vecIdEEEENS_14FundamentalRepILi3EEENS_9CoeffRealEEEE19SeqConservedCurrentERNS_7LatticeINS_7iScalarINS_7iMatrixINSG_IS8_Li3EEELi4EEEEEEESL_SL_NS_7CurrentEjjjRNSE_INSF_INSF_INSF_IS8_EEEEEEEE	0000000000000000 .gcc_except_table._ZN4Grid13WilsonFermionINS_10WilsonImplINS_9Grid_simdISt7complexIdENS_12Optimization3vecIdEEEENS_14FundamentalRepILi3EEENS_9CoeffRealEEEE19SeqConservedCurrentERNS_7LatticeINS_7iScalarINS_7iMatrixINSG_IS8_Li3EEELi4EEEEEEESL_SL_NS_7CurrentEjjjRNSE_INSF_INSF_INSF_IS8_EEEEEEEE
0000000000000000 l       .gcc_except_table._ZN4Grid13WilsonFermionINS_10WilsonImplINS_9Grid_simdISt7complexIdENS_12Optimization3vecIdEEEENS_14FundamentalRepILi3EEENS_9CoeffRealEEEE19SeqConservedCurrentERNS_7LatticeINS_7iScalarINS_7iMatrixINSG_IS8_Li3EEELi4EEEEEEESL_SL_NS_7CurrentEjjjRNSE_INSF_INSF_INSF_IS8_EEEEEEEE	0000000000000000 GCC_except_table22
0000000000000000 l    d  .text._ZN4Grid15FermionOperatorINS_10WilsonImplINS_9Grid_simdISt7complexIdENS_12Optimization3vecIdEEEENS_14FundamentalRepILi3EEENS_9CoeffRealEEEE11ContractJ5qERNS_7LatticeINS_7iScalarINS_7iVectorINSG_IS8_Li3EEELi4EEEEEEERNSE_INSF_INSF_INSF_IS8_EEEEEEEE	0000000000000000 .text._ZN4Grid15FermionOperatorINS_10WilsonImplINS_9Grid_simdISt7complexIdENS_12Optimization3vecIdEEEENS_14FundamentalRepILi3EEENS_9CoeffRealEEEE11ContractJ5qERNS_7LatticeINS_7iScalarINS_7iVectorINSG_IS8_Li3EEELi4EEEEEEERNSE_INSF_INSF_INSF_IS8_EEEEEEEE
0000000000000000 l    d  .text._ZN4Grid15FermionOperatorINS_10WilsonImplINS_9Grid_simdISt7complexIdENS_12Optimization3vecIdEEEENS_14FundamentalRepILi3EEENS_9CoeffRealEEEE11ContractJ5qERNS_7LatticeINS_7iScalarINS_7iMatrixINSG_IS8_Li3EEELi4EEEEEEERNSE_INSF_INSF_INSF_IS8_EEEEEEEE	0000000000000000 .text._ZN4Grid15FermionOperatorINS_10WilsonImplINS_9Grid_simdISt7complexIdENS_12Optimization3vecIdEEEENS_14FundamentalRepILi3EEENS_9CoeffRealEEEE11ContractJ5qERNS_7LatticeINS_7iScalarINS_7iMatrixINSG_IS8_Li3EEELi4EEEEEEERNSE_INSF_INSF_INSF_IS8_EEEEEEEE
0000000000000000 l    d  .text._ZN4Grid15FermionOperatorINS_10WilsonImplINS_9Grid_simdISt7complexIdENS_12Optimization3vecIdEEEENS_14FundamentalRepILi3EEENS_9CoeffRealEEEE6DminusERKNS_7LatticeINS_7iScalarINS_7iVectorINSG_IS8_Li3EEELi4EEEEEEERSK_	0000000000000000 .text._ZN4Grid15FermionOperatorINS_10WilsonImplINS_9Grid_simdISt7complexIdENS_12Optimization3vecIdEEEENS_14FundamentalRepILi3EEENS_9CoeffRealEEEE6DminusERKNS_7LatticeINS_7iScalarINS_7iVectorINSG_IS8_Li3EEELi4EEEEEEERSK_
0000000000000000 l    d  .text._ZN4Grid15FermionOperatorINS_10WilsonImplINS_9Grid_simdISt7complexIdENS_12Optimization3vecIdEEEENS_14FundamentalRepILi3EEENS_9CoeffRealEEEE9DminusDagERKNS_7LatticeINS_7iScalarINS_7iVectorINSG_IS8_Li3EEELi4EEEEEEERSK_	0000000000000000 .text._ZN4Grid15FermionOperatorINS_10WilsonImplINS_9Grid_simdISt7complexIdENS_12Optimization3vecIdEEEENS_14FundamentalRepILi3EEENS_9CoeffRealEEEE9DminusDagERKNS_7LatticeINS_7iScalarINS_7iVectorINSG_IS8_Li3EEELi4EEEEEEERSK_
0000000000000000 l    d  .text._ZN4Grid15FermionOperatorINS_10WilsonImplINS_9Grid_simdISt7complexIdENS_12Optimization3vecIdEEEENS_14FundamentalRepILi3EEENS_9CoeffRealEEEE27ImportPhysicalFermionSourceERKNS_7LatticeINS_7iScalarINS_7iVectorINSG_IS8_Li3EEELi4EEEEEEERSK_	0000000000000000 .text._ZN4Grid15FermionOperatorINS_10WilsonImplINS_9Grid_simdISt7complexIdENS_12Optimization3vecIdEEEENS_14FundamentalRepILi3EEENS_9CoeffRealEEEE27ImportPhysicalFermionSourceERKNS_7LatticeINS_7iScalarINS_7iVectorINSG_IS8_Li3EEELi4EEEEEEERSK_
0000000000000000 l    d  .text._ZN4Grid15FermionOperatorINS_10WilsonImplINS_9Grid_simdISt7complexIdENS_12Optimization3vecIdEEEENS_14FundamentalRepILi3EEENS_9CoeffRealEEEE23ImportUnphysicalFermionERKNS_7LatticeINS_7iScalarINS_7iVectorINSG_IS8_Li3EEELi4EEEEEEERSK_	0000000000000000 .text._ZN4Grid15FermionOperatorINS_10WilsonImplINS_9Grid_simdISt7complexIdENS_12Optimization3vecIdEEEENS_14FundamentalRepILi3EEENS_9CoeffRealEEEE23ImportUnphysicalFermionERKNS_7LatticeINS_7iScalarINS_7iVectorINSG_IS8_Li3EEELi4EEEEEEERSK_
0000000000000000 l    d  .text._ZN4Grid15FermionOperatorINS_10WilsonImplINS_9Grid_simdISt7complexIdENS_12Optimization3vecIdEEEENS_14FundamentalRepILi3EEENS_9CoeffRealEEEE29ExportPhysicalFermionSolutionERKNS_7LatticeINS_7iScalarINS_7iVectorINSG_IS8_Li3EEELi4EEEEEEERSK_	0000000000000000 .text._ZN4Grid15FermionOperatorINS_10WilsonImplINS_9Grid_simdISt7complexIdENS_12Optimization3vecIdEEEENS_14FundamentalRepILi3EEENS_9CoeffRealEEEE29ExportPhysicalFermionSolutionERKNS_7LatticeINS_7iScalarINS_7iVectorINSG_IS8_Li3EEELi4EEEEEEERSK_
0000000000000000 l    d  .text._ZN4Grid15FermionOperatorINS_10WilsonImplINS_9Grid_simdISt7complexIdENS_12Optimization3vecIdEEEENS_14FundamentalRepILi3EEENS_9CoeffRealEEEE27ExportPhysicalFermionSourceERKNS_7LatticeINS_7iScalarINS_7iVectorINSG_IS8_Li3EEELi4EEEEEEERSK_	0000000000000000 .text._ZN4Grid15FermionOperatorINS_10WilsonImplINS_9Grid_simdISt7complexIdENS_12Optimization3vecIdEEEENS_14FundamentalRepILi3EEENS_9CoeffRealEEEE27ExportPhysicalFermionSourceERKNS_7LatticeINS_7iScalarINS_7iVectorINSG_IS8_Li3EEELi4EEEEEEERSK_
0000000000000000 l    d  .text._ZN4GridlsERSoRNS_6LoggerE	0000000000000000 .text._ZN4GridlsERSoRNS_6LoggerE
0000000000000000 l    d  .gcc_except_table._ZN4GridlsERSoRNS_6LoggerE	0000000000000000 .gcc_except_table._ZN4GridlsERSoRNS_6LoggerE
0000000000000000 l       .gcc_except_table._ZN4GridlsERSoRNS_6LoggerE	0000000000000000 GCC_except_table31
0000000000000000 l    d  .text._ZN4Grid7LatticeINS_7iScalarINS_7iMatrixINS2_INS_9Grid_simdISt7complexIdENS_12Optimization3vecIdEEEELi3EEELi4EEEEEEC2EPNS_8GridBaseENS_8ViewModeE	0000000000000000 .text._ZN4Grid7LatticeINS_7iScalarINS_7iMatrixINS2_INS_9Grid_simdISt7complexIdENS_12Optimization3vecIdEEEELi3EEELi4EEEEEEC2EPNS_8GridBaseENS_8ViewModeE
0000000000000000 l    d  .text._ZN4Grid7LatticeINS_7iScalarINS_7iMatrixINS2_INS_9Grid_simdISt7complexIdENS_12Optimization3vecIdEEEELi3EEELi4EEEEEEaSINS_4ZeroEEERSD_RKT_	0000000000000000 .text._ZN4Grid7LatticeINS_7iScalarINS_7iMatrixINS2_INS_9Grid_simdISt7complexIdENS_12Optimization3vecIdEEEELi3EEELi4EEEEEEaSINS_4ZeroEEERSD_RKT_
0000000000000000 l    d  .text._ZN4Grid7LatticeINS_7iScalarINS1_INS1_INS_9Grid_simdIjNS_12Optimization3vecIjEEEEEEEEEEEC2EPNS_8GridBaseENS_8ViewModeE	0000000000000000 .text._ZN4Grid7LatticeINS_7iScalarINS1_INS1_INS_9Grid_simdIjNS_12Optimization3vecIjEEEEEEEEEEEC2EPNS_8GridBaseENS_8ViewModeE
0000000000000000 l    d  .text._ZN4Grid17LatticeCoordinateINS_7iScalarINS1_INS1_INS_9Grid_simdIjNS_12Optimization3vecIjEEEEEEEEEEEEvRNS_7LatticeIT_EEi	0000000000000000 .text._ZN4Grid17LatticeCoordinateINS_7iScalarINS1_INS1_INS_9Grid_simdIjNS_12Optimization3vecIjEEEEEEEEEEEEvRNS_7LatticeIT_EEi
0000000000000000 l    d  .gcc_except_table._ZN4Grid17LatticeCoordinateINS_7iScalarINS1_INS1_INS_9Grid_simdIjNS_12Optimization3vecIjEEEEEEEEEEEEvRNS_7LatticeIT_EEi	0000000000000000 .gcc_except_table._ZN4Grid17LatticeCoordinateINS_7iScalarINS1_INS1_INS_9Grid_simdIjNS_12Optimization3vecIjEEEEEEEEEEEEvRNS_7LatticeIT_EEi
0000000000000000 l       .gcc_except_table._ZN4Grid17LatticeCoordinateINS_7iScalarINS1_INS1_INS_9Grid_simdIjNS_12Optimization3vecIjEEEEEEEEEEEEvRNS_7LatticeIT_EEi	0000000000000000 GCC_except_table35
0000000000000000 l    d  .text._ZN4Grid6CshiftINS_7iScalarINS_7iMatrixINS2_INS_9Grid_simdISt7complexIdENS_12Optimization3vecIdEEEELi3EEELi4EEEEEEENS_7LatticeIT_EERKSF_ii	0000000000000000 .text._ZN4Grid6CshiftINS_7iScalarINS_7iMatrixINS2_INS_9Grid_simdISt7complexIdENS_12Optimization3vecIdEEEELi3EEELi4EEEEEEENS_7LatticeIT_EERKSF_ii
0000000000000000 l    d  .gcc_except_table._ZN4Grid6CshiftINS_7iScalarINS_7iMatrixINS2_INS_9Grid_simdISt7complexIdENS_12Optimization3vecIdEEEELi3EEELi4EEEEEEENS_7LatticeIT_EERKSF_ii	0000000000000000 .gcc_except_table._ZN4Grid6CshiftINS_7iScalarINS_7iMatrixINS2_INS_9Grid_simdISt7complexIdENS_12Optimization3vecIdEEEELi3EEELi4EEEEEEENS_7LatticeIT_EERKSF_ii
0000000000000000 l       .gcc_except_table._ZN4Grid6CshiftINS_7iScalarINS_7iMatrixINS2_INS_9Grid_simdISt7complexIdENS_12Optimization3vecIdEEEELi3EEELi4EEEEEEENS_7LatticeIT_EERKSF_ii	0000000000000000 GCC_except_table36
0000000000000000 l    d  .text._ZN4Grid7LatticeINS_7iScalarINS_7iMatrixINS2_INS_9Grid_simdISt7complexIdENS_12Optimization3vecIdEEEELi3EEELi4EEEEEEaSEOSD_	0000000000000000 .text._ZN4Grid7LatticeINS_7iScalarINS_7iMatrixINS2_INS_9Grid_simdISt7complexIdENS_12Optimization3vecIdEEEELi3EEELi4EEEEEEaSEOSD_
0000000000000000 l    d  .text._ZN4Grid7LatticeINS_7iScalarINS_7iMatrixINS2_INS_9Grid_simdISt7complexIdENS_12Optimization3vecIdEEEELi3EEELi4EEEEEED2Ev	0000000000000000 .text._ZN4Grid7LatticeINS_7iScalarINS_7iMatrixINS2_INS_9Grid_simdISt7complexIdENS_12Optimization3vecIdEEEELi3EEELi4EEEEEED2Ev
0000000000000000 l    d  .gcc_except_table._ZN4Grid7LatticeINS_7iScalarINS_7iMatrixINS2_INS_9Grid_simdISt7complexIdENS_12Optimization3vecIdEEEELi3EEELi4EEEEEED2Ev	0000000000000000 .gcc_except_table._ZN4Grid7LatticeINS_7iScalarINS_7iMatrixINS2_INS_9Grid_simdISt7complexIdENS_12Optimization3vecIdEEEELi3EEELi4EEEEEED2Ev
0000000000000000 l       .gcc_except_table._ZN4Grid7LatticeINS_7iScalarINS_7iMatrixINS2_INS_9Grid_simdISt7complexIdENS_12Optimization3vecIdEEEELi3EEELi4EEEEEED2Ev	0000000000000000 GCC_except_table38
0000000000000000 l    d  .text._ZN4Grid10WilsonImplINS_9Grid_simdISt7complexIdENS_12Optimization3vecIdEEEENS_14FundamentalRepILi3EEENS_9CoeffRealEE13multLinkFieldINS_7LatticeINS_7iScalarINS_7iMatrixINSF_IS7_Li3EEELi4EEEEEEEEEvRT_RKNSD_INS_7iVectorINSE_ISG_EELi8EEEEERKSK_i	0000000000000000 .text._ZN4Grid10WilsonImplINS_9Grid_simdISt7complexIdENS_12Optimization3vecIdEEEENS_14FundamentalRepILi3EEENS_9CoeffRealEE13multLinkFieldINS_7LatticeINS_7iScalarINS_7iMatrixINSF_IS7_Li3EEELi4EEEEEEEEEvRT_RKNSD_INS_7iVectorINSE_ISG_EELi8EEEEERKSK_i
0000000000000000 l     F .text	000000000000010d .omp_outlined.
0000000000000000 l    d  .gcc_except_table._ZN4Grid10WilsonImplINS_9Grid_simdISt7complexIdENS_12Optimization3vecIdEEEENS_14FundamentalRepILi3EEENS_9CoeffRealEE13multLinkFieldINS_7LatticeINS_7iScalarINS_7iMatrixINSF_IS7_Li3EEELi4EEEEEEEEEvRT_RKNSD_INS_7iVectorINSE_ISG_EELi8EEEEERKSK_i	0000000000000000 .gcc_except_table._ZN4Grid10WilsonImplINS_9Grid_simdISt7complexIdENS_12Optimization3vecIdEEEENS_14FundamentalRepILi3EEENS_9CoeffRealEE13multLinkFieldINS_7LatticeINS_7iScalarINS_7iMatrixINSF_IS7_Li3EEELi4EEEEEEEEEvRT_RKNSD_INS_7iVectorINSE_ISG_EELi8EEEEERKSK_i
0000000000000000 l       .gcc_except_table._ZN4Grid10WilsonImplINS_9Grid_simdISt7complexIdENS_12Optimization3vecIdEEEENS_14FundamentalRepILi3EEENS_9CoeffRealEE13multLinkFieldINS_7LatticeINS_7iScalarINS_7iMatrixINSF_IS7_Li3EEELi4EEEEEEEEEvRT_RKNSD_INS_7iVectorINSE_ISG_EELi8EEEEERKSK_i	0000000000000000 GCC_except_table39
0000000000000000 l    d  .text._ZN4Grid7LatticeINS_7iScalarINS_7iMatrixINS2_INS_9Grid_simdISt7complexIdENS_12Optimization3vecIdEEEELi3EEELi4EEEEEEaSINS_9BinarySubENS_23LatticeBinaryExpressionINS_9BinaryMulESD_NS0_INS1_INS1_INS1_IS9_EEEEEEEEEENSG_ISH_NSG_ISH_NS_5GammaESD_EESL_EEEERSD_RKNSG_IT_T0_T1_EE	0000000000000000 .text._ZN4Grid7LatticeINS_7iScalarINS_7iMatrixINS2_INS_9Grid_simdISt7complexIdENS_12Optimization3vecIdEEEELi3EEELi4EEEEEEaSINS_9BinarySubENS_23LatticeBinaryExpressionINS_9BinaryMulESD_NS0_INS1_INS1_INS1_IS9_EEEEEEEEEENSG_ISH_NSG_ISH_NS_5GammaESD_EESL_EEEERSD_RKNSG_IT_T0_T1_EE
0000000000001160 l     F .text	00000000000000e5 .omp_outlined..44
0000000000000000 l    d  .text._ZN4Grid7LatticeINS_7iScalarINS_7iMatrixINS2_INS_9Grid_simdISt7complexIdENS_12Optimization3vecIdEEEELi3EEELi4EEEEEEaSINS_12TrinaryWhereENS0_INS1_INS3_IjNS7_IjEEEEEEEESD_SD_EERSD_RKNS_24LatticeTrinaryExpressionIT_T0_T1_T2_EE	0000000000000000 .text._ZN4Grid7LatticeINS_7iScalarINS_7iMatrixINS2_INS_9Grid_simdISt7complexIdENS_12Optimization3vecIdEEEELi3EEELi4EEEEEEaSINS_12TrinaryWhereENS0_INS1_INS3_IjNS7_IjEEEEEEEESD_SD_EERSD_RKNS_24LatticeTrinaryExpressionIT_T0_T1_T2_EE
000000000000bf90 l     F .text	00000000000000e5 .omp_outlined..52
0000000000000000 l    d  .text._ZN4Grid7LatticeINS_7iScalarINS_9Grid_simdIjNS_12Optimization3vecIjEEEEEEED2Ev	0000000000000000 .text._ZN4Grid7LatticeINS_7iScalarINS_9Grid_simdIjNS_12Optimization3vecIjEEEEEEED2Ev
0000000000000000 l    d  .gcc_except_table._ZN4Grid7LatticeINS_7iScalarINS_9Grid_simdIjNS_12Optimization3vecIjEEEEEEED2Ev	0000000000000000 .gcc_except_table._ZN4Grid7LatticeINS_7iScalarINS_9Grid_simdIjNS_12Optimization3vecIjEEEEEEED2Ev
0000000000000000 l       .gcc_except_table._ZN4Grid7LatticeINS_7iScalarINS_9Grid_simdIjNS_12Optimization3vecIjEEEEEEED2Ev	0000000000000000 GCC_except_table42
0000000000000000 l    d  .text._ZN4Grid7LatticeINS_7iScalarINS1_INS1_INS_9Grid_simdIjNS_12Optimization3vecIjEEEEEEEEEEED2Ev	0000000000000000 .text._ZN4Grid7LatticeINS_7iScalarINS1_INS1_INS_9Grid_simdIjNS_12Optimization3vecIjEEEEEEEEEEED2Ev
0000000000000000 l    d  .gcc_except_table._ZN4Grid7LatticeINS_7iScalarINS1_INS1_INS_9Grid_simdIjNS_12Optimization3vecIjEEEEEEEEEEED2Ev	0000000000000000 .gcc_except_table._ZN4Grid7LatticeINS_7iScalarINS1_INS1_INS_9Grid_simdIjNS_12Optimization3vecIjEEEEEEEEEEED2Ev
0000000000000000 l       .gcc_except_table._ZN4Grid7LatticeINS_7iScalarINS1_INS1_INS_9Grid_simdIjNS_12Optimization3vecIjEEEEEEEEEEED2Ev	0000000000000000 GCC_except_table43
0000000000000000 l    d  .text._ZN4Grid6Logger10backgroundB5cxx11Ev	0000000000000000 .text._ZN4Grid6Logger10backgroundB5cxx11Ev
0000000000000000 l    d  .gcc_except_table._ZN4Grid6Logger10backgroundB5cxx11Ev	0000000000000000 .gcc_except_table._ZN4Grid6Logger10backgroundB5cxx11Ev
0000000000000000 l       .gcc_except_table._ZN4Grid6Logger10backgroundB5cxx11Ev	0000000000000000 GCC_except_table44
0000000000000000 l    d  .text._ZN4GridlsERSoRKNSt6chrono8durationIlSt5ratioILl1ELl1000000EEEE	0000000000000000 .text._ZN4GridlsERSoRKNSt6chrono8durationIlSt5ratioILl1ELl1000000EEEE
0000000000000000 l    d  .text._ZN4Grid6Logger8evidenceB5cxx11Ev	0000000000000000 .text._ZN4Grid6Logger8evidenceB5cxx11Ev
0000000000000000 l    d  .gcc_except_table._ZN4Grid6Logger8evidenceB5cxx11Ev	0000000000000000 .gcc_except_table._ZN4Grid6Logger8evidenceB5cxx11Ev
0000000000000000 l       .gcc_except_table._ZN4Grid6Logger8evidenceB5cxx11Ev	0000000000000000 GCC_except_table46
0000000000000000 l    d  .text._ZNSt3mapINSt7__cxx1112basic_stringIcSt11char_traitsIcESaIcEEES5_St4lessIS5_ESaISt4pairIKS5_S5_EEEixEOS5_	0000000000000000 .text._ZNSt3mapINSt7__cxx1112basic_stringIcSt11char_traitsIcESaIcEEES5_St4lessIS5_ESaISt4pairIKS5_S5_EEEixEOS5_
0000000000000100 l     O .rodata	0000000000000001 _ZStL19piecewise_construct
0000000000000000 l    d  .text._ZNSt8_Rb_treeINSt7__cxx1112basic_stringIcSt11char_traitsIcESaIcEEESt4pairIKS5_S5_ESt10_Select1stIS8_ESt4lessIS5_ESaIS8_EE22_M_emplace_hint_uniqueIJRKSt21piecewise_construct_tSt5tupleIJOS5_EESJ_IJEEEEESt17_Rb_tree_iteratorIS8_ESt23_Rb_tree_const_iteratorIS8_EDpOT_	0000000000000000 .text._ZNSt8_Rb_treeINSt7__cxx1112basic_stringIcSt11char_traitsIcESaIcEEESt4pairIKS5_S5_ESt10_Select1stIS8_ESt4lessIS5_ESaIS8_EE22_M_emplace_hint_uniqueIJRKSt21piecewise_construct_tSt5tupleIJOS5_EESJ_IJEEEEESt17_Rb_tree_iteratorIS8_ESt23_Rb_tree_const_iteratorIS8_EDpOT_
0000000000000000 l    d  .gcc_except_table._ZNSt8_Rb_treeINSt7__cxx1112basic_stringIcSt11char_traitsIcESaIcEEESt4pairIKS5_S5_ESt10_Select1stIS8_ESt4lessIS5_ESaIS8_EE22_M_emplace_hint_uniqueIJRKSt21piecewise_construct_tSt5tupleIJOS5_EESJ_IJEEEEESt17_Rb_tree_iteratorIS8_ESt23_Rb_tree_const_iteratorIS8_EDpOT_	0000000000000000 .gcc_except_table._ZNSt8_Rb_treeINSt7__cxx1112basic_stringIcSt11char_traitsIcESaIcEEESt4pairIKS5_S5_ESt10_Select1stIS8_ESt4lessIS5_ESaIS8_EE22_M_emplace_hint_uniqueIJRKSt21piecewise_construct_tSt5tupleIJOS5_EESJ_IJEEEEESt17_Rb_tree_iteratorIS8_ESt23_Rb_tree_const_iteratorIS8_EDpOT_
0000000000000000 l       .gcc_except_table._ZNSt8_Rb_treeINSt7__cxx1112basic_stringIcSt11char_traitsIcESaIcEEESt4pairIKS5_S5_ESt10_Select1stIS8_ESt4lessIS5_ESaIS8_EE22_M_emplace_hint_uniqueIJRKSt21piecewise_construct_tSt5tupleIJOS5_EESJ_IJEEEEESt17_Rb_tree_iteratorIS8_ESt23_Rb_tree_const_iteratorIS8_EDpOT_	0000000000000000 GCC_except_table49
0000000000000000 l    d  .text._ZNSt8_Rb_treeINSt7__cxx1112basic_stringIcSt11char_traitsIcESaIcEEESt4pairIKS5_S5_ESt10_Select1stIS8_ESt4lessIS5_ESaIS8_EE29_M_get_insert_hint_unique_posESt23_Rb_tree_const_iteratorIS8_ERS7_	0000000000000000 .text._ZNSt8_Rb_treeINSt7__cxx1112basic_stringIcSt11char_traitsIcESaIcEEESt4pairIKS5_S5_ESt10_Select1stIS8_ESt4lessIS5_ESaIS8_EE29_M_get_insert_hint_unique_posESt23_Rb_tree_const_iteratorIS8_ERS7_
0000000000000000 l    d  .text._ZNSt8_Rb_treeINSt7__cxx1112basic_stringIcSt11char_traitsIcESaIcEEESt4pairIKS5_S5_ESt10_Select1stIS8_ESt4lessIS5_ESaIS8_EE12_M_drop_nodeEPSt13_Rb_tree_nodeIS8_E	0000000000000000 .text._ZNSt8_Rb_treeINSt7__cxx1112basic_stringIcSt11char_traitsIcESaIcEEESt4pairIKS5_S5_ESt10_Select1stIS8_ESt4lessIS5_ESaIS8_EE12_M_drop_nodeEPSt13_Rb_tree_nodeIS8_E
0000000000000000 l    d  .text._ZNSt8_Rb_treeINSt7__cxx1112basic_stringIcSt11char_traitsIcESaIcEEESt4pairIKS5_S5_ESt10_Select1stIS8_ESt4lessIS5_ESaIS8_EE24_M_get_insert_unique_posERS7_	0000000000000000 .text._ZNSt8_Rb_treeINSt7__cxx1112basic_stringIcSt11char_traitsIcESaIcEEESt4pairIKS5_S5_ESt10_Select1stIS8_ESt4lessIS5_ESaIS8_EE24_M_get_insert_unique_posERS7_
0000000000000000 l    d  .text._ZN4Grid7LatticeINS_7iScalarINS_7iMatrixINS2_INS_9Grid_simdISt7complexIdENS_12Optimization3vecIdEEEELi3EEELi4EEEEEE6resizeEm	0000000000000000 .text._ZN4Grid7LatticeINS_7iScalarINS_7iMatrixINS2_INS_9Grid_simdISt7complexIdENS_12Optimization3vecIdEEEELi3EEELi4EEEEEE6resizeEm
0000000000000000 l    d  .text._ZN4Grid7LatticeINS_7iScalarINS_7iMatrixINS2_INS_9Grid_simdISt7complexIdENS_12Optimization3vecIdEEEELi3EEELi4EEEEEE11SetViewModeENS_8ViewModeE	0000000000000000 .text._ZN4Grid7LatticeINS_7iScalarINS_7iMatrixINS2_INS_9Grid_simdISt7complexIdENS_12Optimization3vecIdEEEELi3EEELi4EEEEEE11SetViewModeENS_8ViewModeE
0000000000000000 l    d  .text._ZN4Grid16alignedAllocatorINS_7iScalarINS_7iMatrixINS2_INS_9Grid_simdISt7complexIdENS_12Optimization3vecIdEEEELi3EEELi4EEEEEE8allocateEmPKv	0000000000000000 .text._ZN4Grid16alignedAllocatorINS_7iScalarINS_7iMatrixINS2_INS_9Grid_simdISt7complexIdENS_12Optimization3vecIdEEEELi3EEELi4EEEEEE8allocateEmPKv
0000000000000000 l    d  .gcc_except_table._ZN4Grid16alignedAllocatorINS_7iScalarINS_7iMatrixINS2_INS_9Grid_simdISt7complexIdENS_12Optimization3vecIdEEEELi3EEELi4EEEEEE8allocateEmPKv	0000000000000000 .gcc_except_table._ZN4Grid16alignedAllocatorINS_7iScalarINS_7iMatrixINS2_INS_9Grid_simdISt7complexIdENS_12Optimization3vecIdEEEELi3EEELi4EEEEEE8allocateEmPKv
0000000000000000 l       .gcc_except_table._ZN4Grid16alignedAllocatorINS_7iScalarINS_7iMatrixINS2_INS_9Grid_simdISt7complexIdENS_12Optimization3vecIdEEEELi3EEELi4EEEEEE8allocateEmPKv	0000000000000000 GCC_except_table55
0000000000000000 l    d  .text._ZN4Grid16alignedAllocatorINS_7iScalarINS_7iMatrixINS2_INS_9Grid_simdISt7complexIdENS_12Optimization3vecIdEEEELi3EEELi4EEEEEE10deallocateEPSC_m	0000000000000000 .text._ZN4Grid16alignedAllocatorINS_7iScalarINS_7iMatrixINS2_INS_9Grid_simdISt7complexIdENS_12Optimization3vecIdEEEELi3EEELi4EEEEEE10deallocateEPSC_m
0000000000000000 l    d  .gcc_except_table._ZN4Grid16alignedAllocatorINS_7iScalarINS_7iMatrixINS2_INS_9Grid_simdISt7complexIdENS_12Optimization3vecIdEEEELi3EEELi4EEEEEE10deallocateEPSC_m	0000000000000000 .gcc_except_table._ZN4Grid16alignedAllocatorINS_7iScalarINS_7iMatrixINS2_INS_9Grid_simdISt7complexIdENS_12Optimization3vecIdEEEELi3EEELi4EEEEEE10deallocateEPSC_m
0000000000000000 l       .gcc_except_table._ZN4Grid16alignedAllocatorINS_7iScalarINS_7iMatrixINS2_INS_9Grid_simdISt7complexIdENS_12Optimization3vecIdEEEELi3EEELi4EEEEEE10deallocateEPSC_m	0000000000000000 GCC_except_table56
0000000000000000 l    d  .text._ZN9__gnu_cxx12__to_xstringINSt7__cxx1112basic_stringIcSt11char_traitsIcESaIcEEEcEET_PFiPT0_mPKS8_P13__va_list_tagEmSB_z	0000000000000000 .text._ZN9__gnu_cxx12__to_xstringINSt7__cxx1112basic_stringIcSt11char_traitsIcESaIcEEEcEET_PFiPT0_mPKS8_P13__va_list_tagEmSB_z
0000000000000000 l    d  .text._ZN4Grid11LatticeViewINS_7iScalarINS_7iMatrixINS2_INS_9Grid_simdISt7complexIdENS_12Optimization3vecIdEEEELi3EEELi4EEEEEEC2ERKNS_18LatticeAcceleratorISC_EENS_8ViewModeE	0000000000000000 .text._ZN4Grid11LatticeViewINS_7iScalarINS_7iMatrixINS2_INS_9Grid_simdISt7complexIdENS_12Optimization3vecIdEEEELi3EEELi4EEEEEEC2ERKNS_18LatticeAcceleratorISC_EENS_8ViewModeE
0000000000000000 l    d  .text._ZN4Grid11LatticeViewINS_7iScalarINS_7iMatrixINS2_INS_9Grid_simdISt7complexIdENS_12Optimization3vecIdEEEELi3EEELi4EEEEEE8ViewOpenENS_8ViewModeE	0000000000000000 .text._ZN4Grid11LatticeViewINS_7iScalarINS_7iMatrixINS2_INS_9Grid_simdISt7complexIdENS_12Optimization3vecIdEEEELi3EEELi4EEEEEE8ViewOpenENS_8ViewModeE
0000000000000000 l    d  .text._ZNK4Grid7LatticeINS_7iScalarINS_7iMatrixINS2_INS_9Grid_simdISt7complexIdENS_12Optimization3vecIdEEEELi3EEELi4EEEEEE4ViewENS_8ViewModeE	0000000000000000 .text._ZNK4Grid7LatticeINS_7iScalarINS_7iMatrixINS2_INS_9Grid_simdISt7complexIdENS_12Optimization3vecIdEEEELi3EEELi4EEEEEE4ViewENS_8ViewModeE
0000000000000000 l    d  .text._ZN4Grid7LatticeINS_7iScalarINS1_INS1_INS_9Grid_simdIjNS_12Optimization3vecIjEEEEEEEEEEE6resizeEm	0000000000000000 .text._ZN4Grid7LatticeINS_7iScalarINS1_INS1_INS_9Grid_simdIjNS_12Optimization3vecIjEEEEEEEEEEE6resizeEm
0000000000000000 l    d  .text._ZN4Grid7LatticeINS_7iScalarINS1_INS1_INS_9Grid_simdIjNS_12Optimization3vecIjEEEEEEEEEEE11SetViewModeENS_8ViewModeE	0000000000000000 .text._ZN4Grid7LatticeINS_7iScalarINS1_INS1_INS_9Grid_simdIjNS_12Optimization3vecIjEEEEEEEEEEE11SetViewModeENS_8ViewModeE
0000000000000000 l    d  .text._ZN4Grid16alignedAllocatorINS_7iScalarINS1_INS1_INS_9Grid_simdIjNS_12Optimization3vecIjEEEEEEEEEEE8allocateEmPKv	0000000000000000 .text._ZN4Grid16alignedAllocatorINS_7iScalarINS1_INS1_INS_9Grid_simdIjNS_12Optimization3vecIjEEEEEEEEEEE8allocateEmPKv
0000000000000000 l    d  .gcc_except_table._ZN4Grid16alignedAllocatorINS_7iScalarINS1_INS1_INS_9Grid_simdIjNS_12Optimization3vecIjEEEEEEEEEEE8allocateEmPKv	0000000000000000 .gcc_except_table._ZN4Grid16alignedAllocatorINS_7iScalarINS1_INS1_INS_9Grid_simdIjNS_12Optimization3vecIjEEEEEEEEEEE8allocateEmPKv
0000000000000000 l       .gcc_except_table._ZN4Grid16alignedAllocatorINS_7iScalarINS1_INS1_INS_9Grid_simdIjNS_12Optimization3vecIjEEEEEEEEEEE8allocateEmPKv	0000000000000000 GCC_except_table63
0000000000000000 l    d  .text._ZN4Grid16alignedAllocatorINS_7iScalarINS1_INS1_INS_9Grid_simdIjNS_12Optimization3vecIjEEEEEEEEEEE10deallocateEPS9_m	0000000000000000 .text._ZN4Grid16alignedAllocatorINS_7iScalarINS1_INS1_INS_9Grid_simdIjNS_12Optimization3vecIjEEEEEEEEEEE10deallocateEPS9_m
0000000000000000 l    d  .gcc_except_table._ZN4Grid16alignedAllocatorINS_7iScalarINS1_INS1_INS_9Grid_simdIjNS_12Optimization3vecIjEEEEEEEEEEE10deallocateEPS9_m	0000000000000000 .gcc_except_table._ZN4Grid16alignedAllocatorINS_7iScalarINS1_INS1_INS_9Grid_simdIjNS_12Optimization3vecIjEEEEEEEEEEE10deallocateEPS9_m
0000000000000000 l       .gcc_except_table._ZN4Grid16alignedAllocatorINS_7iScalarINS1_INS1_INS_9Grid_simdIjNS_12Optimization3vecIjEEEEEEEEEEE10deallocateEPS9_m	0000000000000000 GCC_except_table64
0000000000000000 l    d  .text._ZN4Grid11LatticeViewINS_7iScalarINS1_INS1_INS_9Grid_simdIjNS_12Optimization3vecIjEEEEEEEEEEEC2ERKNS_18LatticeAcceleratorIS9_EENS_8ViewModeE	0000000000000000 .text._ZN4Grid11LatticeViewINS_7iScalarINS1_INS1_INS_9Grid_simdIjNS_12Optimization3vecIjEEEEEEEEEEEC2ERKNS_18LatticeAcceleratorIS9_EENS_8ViewModeE
0000000000000000 l    d  .text._ZN4Grid11LatticeViewINS_7iScalarINS1_INS1_INS_9Grid_simdIjNS_12Optimization3vecIjEEEEEEEEEEE8ViewOpenENS_8ViewModeE	0000000000000000 .text._ZN4Grid11LatticeViewINS_7iScalarINS1_INS1_INS_9Grid_simdIjNS_12Optimization3vecIjEEEEEEEEEEE8ViewOpenENS_8ViewModeE
0000000000000000 l    d  .text._ZNK4Grid7LatticeINS_7iScalarINS1_INS1_INS_9Grid_simdIjNS_12Optimization3vecIjEEEEEEEEEEE4ViewENS_8ViewModeE	0000000000000000 .text._ZNK4Grid7LatticeINS_7iScalarINS1_INS1_INS_9Grid_simdIjNS_12Optimization3vecIjEEEEEEEEEEE4ViewENS_8ViewModeE
0000000000000000 l    d  .text._ZN4Grid8GridBase21RankIndexToGlobalCoorEiiiRNS_17AcceleratorVectorIiLi8EEE	0000000000000000 .text._ZN4Grid8GridBase21RankIndexToGlobalCoorEiiiRNS_17AcceleratorVectorIiLi8EEE
0000000000000000 l    d  .text._ZN4Grid10ViewCloserINS_11LatticeViewINS_7iScalarINS2_INS2_INS_9Grid_simdIjNS_12Optimization3vecIjEEEEEEEEEEEEED2Ev	0000000000000000 .text._ZN4Grid10ViewCloserINS_11LatticeViewINS_7iScalarINS2_INS2_INS_9Grid_simdIjNS_12Optimization3vecIjEEEEEEEEEEEEED2Ev
0000000000000000 l    d  .gcc_except_table._ZN4Grid10ViewCloserINS_11LatticeViewINS_7iScalarINS2_INS2_INS_9Grid_simdIjNS_12Optimization3vecIjEEEEEEEEEEEEED2Ev	0000000000000000 .gcc_except_table._ZN4Grid10ViewCloserINS_11LatticeViewINS_7iScalarINS2_INS2_INS_9Grid_simdIjNS_12Optimization3vecIjEEEEEEEEEEEEED2Ev
0000000000000000 l       .gcc_except_table._ZN4Grid10ViewCloserINS_11LatticeViewINS_7iScalarINS2_INS2_INS_9Grid_simdIjNS_12Optimization3vecIjEEEEEEEEEEEEED2Ev	0000000000000000 GCC_except_table69
0000000000000000 l    d  .text._ZN4Grid12Cshift_localINS_7iScalarINS_7iMatrixINS2_INS_9Grid_simdISt7complexIdENS_12Optimization3vecIdEEEELi3EEELi4EEEEEEEvRNS_7LatticeIT_EERKSF_ii	0000000000000000 .text._ZN4Grid12Cshift_localINS_7iScalarINS_7iMatrixINS2_INS_9Grid_simdISt7complexIdENS_12Optimization3vecIdEEEELi3EEELi4EEEEEEEvRNS_7LatticeIT_EERKSF_ii
0000000000000060 l       .rodata.cst16	0000000000000000 .LCPI71_0
0000000000000000 l    d  .text._ZN4Grid12Cshift_localINS_7iScalarINS_7iMatrixINS2_INS_9Grid_simdISt7complexIdENS_12Optimization3vecIdEEEELi3EEELi4EEEEEEEvRNS_7LatticeIT_EERKSF_iii	0000000000000000 .text._ZN4Grid12Cshift_localINS_7iScalarINS_7iMatrixINS2_INS_9Grid_simdISt7complexIdENS_12Optimization3vecIdEEEELi3EEELi4EEEEEEEvRNS_7LatticeIT_EERKSF_iii
0000000000000000 l    d  .text._ZN4Grid18Copy_plane_permuteINS_7iScalarINS_7iMatrixINS2_INS_9Grid_simdISt7complexIdENS_12Optimization3vecIdEEEELi3EEELi4EEEEEEEvRNS_7LatticeIT_EERKSF_iiiii	0000000000000000 .text._ZN4Grid18Copy_plane_permuteINS_7iScalarINS_7iMatrixINS2_INS_9Grid_simdISt7complexIdENS_12Optimization3vecIdEEEELi3EEELi4EEEEEEEvRNS_7LatticeIT_EERKSF_iiiii
0000000000000000 l    d  .gcc_except_table._ZN4Grid18Copy_plane_permuteINS_7iScalarINS_7iMatrixINS2_INS_9Grid_simdISt7complexIdENS_12Optimization3vecIdEEEELi3EEELi4EEEEEEEvRNS_7LatticeIT_EERKSF_iiiii	0000000000000000 .gcc_except_table._ZN4Grid18Copy_plane_permuteINS_7iScalarINS_7iMatrixINS2_INS_9Grid_simdISt7complexIdENS_12Optimization3vecIdEEEELi3EEELi4EEEEEEEvRNS_7LatticeIT_EERKSF_iiiii
0000000000000000 l       .gcc_except_table._ZN4Grid18Copy_plane_permuteINS_7iScalarINS_7iMatrixINS2_INS_9Grid_simdISt7complexIdENS_12Optimization3vecIdEEEELi3EEELi4EEEEEEEvRNS_7LatticeIT_EERKSF_iiiii	0000000000000000 GCC_except_table72
0000000000000000 l    d  .text._ZN4Grid10Copy_planeINS_7iScalarINS_7iMatrixINS2_INS_9Grid_simdISt7complexIdENS_12Optimization3vecIdEEEELi3EEELi4EEEEEEEvRNS_7LatticeIT_EERKSF_iiii	0000000000000000 .text._ZN4Grid10Copy_planeINS_7iScalarINS_7iMatrixINS2_INS_9Grid_simdISt7complexIdENS_12Optimization3vecIdEEEELi3EEELi4EEEEEEEvRNS_7LatticeIT_EERKSF_iiii
0000000000000000 l    d  .gcc_except_table._ZN4Grid10Copy_planeINS_7iScalarINS_7iMatrixINS2_INS_9Grid_simdISt7complexIdENS_12Optimization3vecIdEEEELi3EEELi4EEEEEEEvRNS_7LatticeIT_EERKSF_iiii	0000000000000000 .gcc_except_table._ZN4Grid10Copy_planeINS_7iScalarINS_7iMatrixINS2_INS_9Grid_simdISt7complexIdENS_12Optimization3vecIdEEEELi3EEELi4EEEEEEEvRNS_7LatticeIT_EERKSF_iiii
0000000000000000 l       .gcc_except_table._ZN4Grid10Copy_planeINS_7iScalarINS_7iMatrixINS2_INS_9Grid_simdISt7complexIdENS_12Optimization3vecIdEEEELi3EEELi4EEEEEEEvRNS_7LatticeIT_EERKSF_iiii	0000000000000000 GCC_except_table73
0000000000000000 l    d  .text._ZN4Grid10ViewCloserINS_11LatticeViewINS_7iScalarINS_7iMatrixINS3_INS_9Grid_simdISt7complexIdENS_12Optimization3vecIdEEEELi3EEELi4EEEEEEEED2Ev	0000000000000000 .text._ZN4Grid10ViewCloserINS_11LatticeViewINS_7iScalarINS_7iMatrixINS3_INS_9Grid_simdISt7complexIdENS_12Optimization3vecIdEEEELi3EEELi4EEEEEEEED2Ev
0000000000000000 l    d  .gcc_except_table._ZN4Grid10ViewCloserINS_11LatticeViewINS_7iScalarINS_7iMatrixINS3_INS_9Grid_simdISt7complexIdENS_12Optimization3vecIdEEEELi3EEELi4EEEEEEEED2Ev	0000000000000000 .gcc_except_table._ZN4Grid10ViewCloserINS_11LatticeViewINS_7iScalarINS_7iMatrixINS3_INS_9Grid_simdISt7complexIdENS_12Optimization3vecIdEEEELi3EEELi4EEEEEEEED2Ev
0000000000000000 l       .gcc_except_table._ZN4Grid10ViewCloserINS_11LatticeViewINS_7iScalarINS_7iMatrixINS3_INS_9Grid_simdISt7complexIdENS_12Optimization3vecIdEEEELi3EEELi4EEEEEEEED2Ev	0000000000000000 GCC_except_table74
0000000000000000 l    d  .text._ZNSt6vectorISt4pairIiiEN4Grid12uvmAllocatorIS1_EEE17_M_default_appendEm	0000000000000000 .text._ZNSt6vectorISt4pairIiiEN4Grid12uvmAllocatorIS1_EEE17_M_default_appendEm
0000000000000000 l    d  .text._ZN4Grid12uvmAllocatorISt4pairIiiEE8allocateEmPKv	0000000000000000 .text._ZN4Grid12uvmAllocatorISt4pairIiiEE8allocateEmPKv
0000000000000000 l    d  .gcc_except_table._ZN4Grid12uvmAllocatorISt4pairIiiEE8allocateEmPKv	0000000000000000 .gcc_except_table._ZN4Grid12uvmAllocatorISt4pairIiiEE8allocateEmPKv
0000000000000000 l       .gcc_except_table._ZN4Grid12uvmAllocatorISt4pairIiiEE8allocateEmPKv	0000000000000000 GCC_except_table76
0000000000000000 l    d  .text._ZN4Grid12uvmAllocatorISt4pairIiiEE10deallocateEPS2_m	0000000000000000 .text._ZN4Grid12uvmAllocatorISt4pairIiiEE10deallocateEPS2_m
0000000000000000 l    d  .gcc_except_table._ZN4Grid12uvmAllocatorISt4pairIiiEE10deallocateEPS2_m	0000000000000000 .gcc_except_table._ZN4Grid12uvmAllocatorISt4pairIiiEE10deallocateEPS2_m
0000000000000000 l       .gcc_except_table._ZN4Grid12uvmAllocatorISt4pairIiiEE10deallocateEPS2_m	0000000000000000 GCC_except_table77
0000000000000000 l    d  .text._ZNK4Grid7LatticeINS_7iVectorINS_7iScalarINS_7iMatrixINS_9Grid_simdISt7complexIdENS_12Optimization3vecIdEEEELi3EEEEELi8EEEE4ViewENS_8ViewModeE	0000000000000000 .text._ZNK4Grid7LatticeINS_7iVectorINS_7iScalarINS_7iMatrixINS_9Grid_simdISt7complexIdENS_12Optimization3vecIdEEEELi3EEEEELi8EEEE4ViewENS_8ViewModeE
0000000000000110 l     F .text	000000000000104c .omp_outlined..41
0000000000000070 l       .rodata.cst16	0000000000000000 .LCPI80_0
0000000000000000 l    d  .text._ZN4Grid10ViewCloserINS_11LatticeViewINS_7iVectorINS_7iScalarINS_7iMatrixINS_9Grid_simdISt7complexIdENS_12Optimization3vecIdEEEELi3EEEEELi8EEEEEED2Ev	0000000000000000 .text._ZN4Grid10ViewCloserINS_11LatticeViewINS_7iVectorINS_7iScalarINS_7iMatrixINS_9Grid_simdISt7complexIdENS_12Optimization3vecIdEEEELi3EEEEELi8EEEEEED2Ev
0000000000000000 l    d  .gcc_except_table._ZN4Grid10ViewCloserINS_11LatticeViewINS_7iVectorINS_7iScalarINS_7iMatrixINS_9Grid_simdISt7complexIdENS_12Optimization3vecIdEEEELi3EEEEELi8EEEEEED2Ev	0000000000000000 .gcc_except_table._ZN4Grid10ViewCloserINS_11LatticeViewINS_7iVectorINS_7iScalarINS_7iMatrixINS_9Grid_simdISt7complexIdENS_12Optimization3vecIdEEEELi3EEEEELi8EEEEEED2Ev
0000000000000000 l       .gcc_except_table._ZN4Grid10ViewCloserINS_11LatticeViewINS_7iVectorINS_7iScalarINS_7iMatrixINS_9Grid_simdISt7complexIdENS_12Optimization3vecIdEEEELi3EEEEELi8EEEEEED2Ev	0000000000000000 GCC_except_table81
0000000000000000 l    d  .text._ZN4Grid11LatticeViewINS_7iVectorINS_7iScalarINS_7iMatrixINS_9Grid_simdISt7complexIdENS_12Optimization3vecIdEEEELi3EEEEELi8EEEEC2ERKNS_18LatticeAcceleratorISD_EENS_8ViewModeE	0000000000000000 .text._ZN4Grid11LatticeViewINS_7iVectorINS_7iScalarINS_7iMatrixINS_9Grid_simdISt7complexIdENS_12Optimization3vecIdEEEELi3EEEEELi8EEEEC2ERKNS_18LatticeAcceleratorISD_EENS_8ViewModeE
0000000000000000 l    d  .text._ZN4Grid11LatticeViewINS_7iVectorINS_7iScalarINS_7iMatrixINS_9Grid_simdISt7complexIdENS_12Optimization3vecIdEEEELi3EEEEELi8EEEE8ViewOpenENS_8ViewModeE	0000000000000000 .text._ZN4Grid11LatticeViewINS_7iVectorINS_7iScalarINS_7iMatrixINS_9Grid_simdISt7complexIdENS_12Optimization3vecIdEEEELi3EEEEELi8EEEE8ViewOpenENS_8ViewModeE
0000000000000000 l    d  .text._ZN4Grid11LatticeViewINS_7iScalarINS_7iMatrixINS2_INS_9Grid_simdISt7complexIdENS_12Optimization3vecIdEEEELi3EEELi4EEEEEEC2ERKNS_18LatticeAcceleratorISC_EE	0000000000000000 .text._ZN4Grid11LatticeViewINS_7iScalarINS_7iMatrixINS2_INS_9Grid_simdISt7complexIdENS_12Optimization3vecIdEEEELi3EEELi4EEEEEEC2ERKNS_18LatticeAcceleratorISC_EE
0000000000000000 l    d  .text._ZN4Grid11LatticeViewINS_7iScalarINS1_INS1_INS_9Grid_simdISt7complexIdENS_12Optimization3vecIdEEEEEEEEEEEC2ERKNS_18LatticeAcceleratorISB_EE	0000000000000000 .text._ZN4Grid11LatticeViewINS_7iScalarINS1_INS1_INS_9Grid_simdISt7complexIdENS_12Optimization3vecIdEEEEEEEEEEEC2ERKNS_18LatticeAcceleratorISB_EE
0000000000001250 l     F .text	000000000000ad36 .omp_outlined..45
0000000000000080 l       .rodata.cst16	0000000000000000 .LCPI87_0
0000000000000000 l    d  .rodata	0000000000000000 .rodata
0000000000000000 l    d  .text._ZN4Grid16CBFromExpressionINS_11LatticeViewINS_7iScalarINS_7iMatrixINS3_INS_9Grid_simdISt7complexIdENS_12Optimization3vecIdEEEELi3EEELi4EEEEEEELPSE_0EEEvRiRKT_	0000000000000000 .text._ZN4Grid16CBFromExpressionINS_11LatticeViewINS_7iScalarINS_7iMatrixINS3_INS_9Grid_simdISt7complexIdENS_12Optimization3vecIdEEEELi3EEELi4EEEEEEELPSE_0EEEvRiRKT_
0000000000000000 l    d  .text._ZN4Grid16CBFromExpressionINS_11LatticeViewINS_7iScalarINS2_INS2_INS_9Grid_simdISt7complexIdENS_12Optimization3vecIdEEEEEEEEEEEELPSD_0EEEvRiRKT_	0000000000000000 .text._ZN4Grid16CBFromExpressionINS_11LatticeViewINS_7iScalarINS2_INS2_INS_9Grid_simdISt7complexIdENS_12Optimization3vecIdEEEEEEEEEEEELPSD_0EEEvRiRKT_
0000000000000000 l    d  .text._ZN4Grid11LatticeViewINS_7iScalarINS1_INS1_INS_9Grid_simdISt7complexIdENS_12Optimization3vecIdEEEEEEEEEEE8ViewOpenENS_8ViewModeE	0000000000000000 .text._ZN4Grid11LatticeViewINS_7iScalarINS1_INS1_INS_9Grid_simdISt7complexIdENS_12Optimization3vecIdEEEEEEEEEEE8ViewOpenENS_8ViewModeE
0000000000000000 l    d  .text._ZN4Grid11LatticeViewINS_7iScalarINS_9Grid_simdIjNS_12Optimization3vecIjEEEEEEEC2ERKNS_18LatticeAcceleratorIS7_EE	0000000000000000 .text._ZN4Grid11LatticeViewINS_7iScalarINS_9Grid_simdIjNS_12Optimization3vecIjEEEEEEEC2ERKNS_18LatticeAcceleratorIS7_EE
0000000000000090 l       .rodata.cst16	0000000000000000 .LCPI92_0
00000000000000a0 l       .rodata.cst16	0000000000000000 .LCPI92_1
0000000000000000 l    d  .text._ZN4Grid12LSComparisonINS_3vgeINS_7iScalarINS2_INS2_INS_9Grid_simdIjNS_12Optimization3vecIjEEEEEEEEEEjEESA_jEENS_7LatticeIS8_EET_RKNSC_IT0_EERKT1_	0000000000000000 .text._ZN4Grid12LSComparisonINS_3vgeINS_7iScalarINS2_INS2_INS_9Grid_simdIjNS_12Optimization3vecIjEEEEEEEEEEjEESA_jEENS_7LatticeIS8_EET_RKNSC_IT0_EERKT1_
0000000000000000 l    d  .gcc_except_table._ZN4Grid12LSComparisonINS_3vgeINS_7iScalarINS2_INS2_INS_9Grid_simdIjNS_12Optimization3vecIjEEEEEEEEEEjEESA_jEENS_7LatticeIS8_EET_RKNSC_IT0_EERKT1_	0000000000000000 .gcc_except_table._ZN4Grid12LSComparisonINS_3vgeINS_7iScalarINS2_INS2_INS_9Grid_simdIjNS_12Optimization3vecIjEEEEEEEEEEjEESA_jEENS_7LatticeIS8_EET_RKNSC_IT0_EERKT1_
0000000000000000 l       .gcc_except_table._ZN4Grid12LSComparisonINS_3vgeINS_7iScalarINS2_INS2_INS_9Grid_simdIjNS_12Optimization3vecIjEEEEEEEEEEjEESA_jEENS_7LatticeIS8_EET_RKNSC_IT0_EERKT1_	0000000000000000 GCC_except_table92
0000000000000000 l    d  .text._ZN4Grid7LatticeINS_7iScalarINS_9Grid_simdIjNS_12Optimization3vecIjEEEEEEEC2EPNS_8GridBaseENS_8ViewModeE	0000000000000000 .text._ZN4Grid7LatticeINS_7iScalarINS_9Grid_simdIjNS_12Optimization3vecIjEEEEEEEC2EPNS_8GridBaseENS_8ViewModeE
0000000000000000 l    d  .text._ZNK4Grid7LatticeINS_7iScalarINS_9Grid_simdIjNS_12Optimization3vecIjEEEEEEE4ViewENS_8ViewModeE	0000000000000000 .text._ZNK4Grid7LatticeINS_7iScalarINS_9Grid_simdIjNS_12Optimization3vecIjEEEEEEE4ViewENS_8ViewModeE
0000000000000000 l    d  .text._ZN4Grid7LatticeINS_7iScalarINS_9Grid_simdIjNS_12Optimization3vecIjEEEEEEE6resizeEm	0000000000000000 .text._ZN4Grid7LatticeINS_7iScalarINS_9Grid_simdIjNS_12Optimization3vecIjEEEEEEE6resizeEm
0000000000000000 l    d  .text._ZN4Grid7LatticeINS_7iScalarINS_9Grid_simdIjNS_12Optimization3vecIjEEEEEEE11SetViewModeENS_8ViewModeE	0000000000000000 .text._ZN4Grid7LatticeINS_7iScalarINS_9Grid_simdIjNS_12Optimization3vecIjEEEEEEE11SetViewModeENS_8ViewModeE
0000000000000000 l    d  .text._ZN4Grid16alignedAllocatorINS_7iScalarINS_9Grid_simdIjNS_12Optimization3vecIjEEEEEEE8allocateEmPKv	0000000000000000 .text._ZN4Grid16alignedAllocatorINS_7iScalarINS_9Grid_simdIjNS_12Optimization3vecIjEEEEEEE8allocateEmPKv
0000000000000000 l    d  .gcc_except_table._ZN4Grid16alignedAllocatorINS_7iScalarINS_9Grid_simdIjNS_12Optimization3vecIjEEEEEEE8allocateEmPKv	0000000000000000 .gcc_except_table._ZN4Grid16alignedAllocatorINS_7iScalarINS_9Grid_simdIjNS_12Optimization3vecIjEEEEEEE8allocateEmPKv
0000000000000000 l       .gcc_except_table._ZN4Grid16alignedAllocatorINS_7iScalarINS_9Grid_simdIjNS_12Optimization3vecIjEEEEEEE8allocateEmPKv	0000000000000000 GCC_except_table97
0000000000000000 l    d  .text._ZN4Grid16alignedAllocatorINS_7iScalarINS_9Grid_simdIjNS_12Optimization3vecIjEEEEEEE10deallocateEPS7_m	0000000000000000 .text._ZN4Grid16alignedAllocatorINS_7iScalarINS_9Grid_simdIjNS_12Optimization3vecIjEEEEEEE10deallocateEPS7_m
0000000000000000 l    d  .gcc_except_table._ZN4Grid16alignedAllocatorINS_7iScalarINS_9Grid_simdIjNS_12Optimization3vecIjEEEEEEE10deallocateEPS7_m	0000000000000000 .gcc_except_table._ZN4Grid16alignedAllocatorINS_7iScalarINS_9Grid_simdIjNS_12Optimization3vecIjEEEEEEE10deallocateEPS7_m
0000000000000000 l       .gcc_except_table._ZN4Grid16alignedAllocatorINS_7iScalarINS_9Grid_simdIjNS_12Optimization3vecIjEEEEEEE10deallocateEPS7_m	0000000000000000 GCC_except_table98
0000000000000000 l    d  .text._ZN4Grid11LatticeViewINS_7iScalarINS_9Grid_simdIjNS_12Optimization3vecIjEEEEEEEC2ERKNS_18LatticeAcceleratorIS7_EENS_8ViewModeE	0000000000000000 .text._ZN4Grid11LatticeViewINS_7iScalarINS_9Grid_simdIjNS_12Optimization3vecIjEEEEEEEC2ERKNS_18LatticeAcceleratorIS7_EENS_8ViewModeE
0000000000000000 l    d  .text._ZN4Grid11LatticeViewINS_7iScalarINS_9Grid_simdIjNS_12Optimization3vecIjEEEEEEE8ViewOpenENS_8ViewModeE	0000000000000000 .text._ZN4Grid11LatticeViewINS_7iScalarINS_9Grid_simdIjNS_12Optimization3vecIjEEEEEEE8ViewOpenENS_8ViewModeE
000000000000c080 l     F .text	000000000000046a .omp_outlined..53
0000000000000000 l    d  .text._ZN4Grid16CBFromExpressionINS_11LatticeViewINS_7iScalarINS_9Grid_simdIjNS_12Optimization3vecIjEEEEEEEELPS9_0EEEvRiRKT_	0000000000000000 .text._ZN4Grid16CBFromExpressionINS_11LatticeViewINS_7iScalarINS_9Grid_simdIjNS_12Optimization3vecIjEEEEEEEELPS9_0EEEvRiRKT_
0000000000000000 l    d  .text._ZN4Grid16CartesianStencilINS_7iScalarINS_7iVectorINS2_INS_9Grid_simdISt7complexIdENS_12Optimization3vecIdEEEELi3EEELi4EEEEENS1_INS2_ISA_Li2EEEEENS_16WilsonImplParamsEED2Ev	0000000000000000 .text._ZN4Grid16CartesianStencilINS_7iScalarINS_7iVectorINS2_INS_9Grid_simdISt7complexIdENS_12Optimization3vecIdEEEELi3EEELi4EEEEENS1_INS2_ISA_Li2EEEEENS_16WilsonImplParamsEED2Ev
0000000000000000 l    d  .gcc_except_table._ZN4Grid16CartesianStencilINS_7iScalarINS_7iVectorINS2_INS_9Grid_simdISt7complexIdENS_12Optimization3vecIdEEEELi3EEELi4EEEEENS1_INS2_ISA_Li2EEEEENS_16WilsonImplParamsEED2Ev	0000000000000000 .gcc_except_table._ZN4Grid16CartesianStencilINS_7iScalarINS_7iVectorINS2_INS_9Grid_simdISt7complexIdENS_12Optimization3vecIdEEEELi3EEELi4EEEEENS1_INS2_ISA_Li2EEEEENS_16WilsonImplParamsEED2Ev
0000000000000000 l       .gcc_except_table._ZN4Grid16CartesianStencilINS_7iScalarINS_7iVectorINS2_INS_9Grid_simdISt7complexIdENS_12Optimization3vecIdEEEELi3EEELi4EEEEENS1_INS2_ISA_Li2EEEEENS_16WilsonImplParamsEED2Ev	0000000000000000 GCC_except_table104
0000000000000000 l    d  .text._ZN4Grid7LatticeINS_7iScalarINS_7iVectorINS2_INS_9Grid_simdISt7complexIdENS_12Optimization3vecIdEEEELi3EEELi4EEEEEED2Ev	0000000000000000 .text._ZN4Grid7LatticeINS_7iScalarINS_7iVectorINS2_INS_9Grid_simdISt7complexIdENS_12Optimization3vecIdEEEELi3EEELi4EEEEEED2Ev
0000000000000000 l    d  .gcc_except_table._ZN4Grid7LatticeINS_7iScalarINS_7iVectorINS2_INS_9Grid_simdISt7complexIdENS_12Optimization3vecIdEEEELi3EEELi4EEEEEED2Ev	0000000000000000 .gcc_except_table._ZN4Grid7LatticeINS_7iScalarINS_7iVectorINS2_INS_9Grid_simdISt7complexIdENS_12Optimization3vecIdEEEELi3EEELi4EEEEEED2Ev
0000000000000000 l       .gcc_except_table._ZN4Grid7LatticeINS_7iScalarINS_7iVectorINS2_INS_9Grid_simdISt7complexIdENS_12Optimization3vecIdEEEELi3EEELi4EEEEEED2Ev	0000000000000000 GCC_except_table105
0000000000000000 l    d  .text._ZN4Grid12uvmAllocatorIiE10deallocateEPim	0000000000000000 .text._ZN4Grid12uvmAllocatorIiE10deallocateEPim
0000000000000000 l    d  .gcc_except_table._ZN4Grid12uvmAllocatorIiE10deallocateEPim	0000000000000000 .gcc_except_table._ZN4Grid12uvmAllocatorIiE10deallocateEPim
0000000000000000 l       .gcc_except_table._ZN4Grid12uvmAllocatorIiE10deallocateEPim	0000000000000000 GCC_except_table106
0000000000000000 l    d  .text._ZN4Grid16alignedAllocatorINS_7iVectorINS_7iScalarINS_7iMatrixINS_9Grid_simdISt7complexIdENS_12Optimization3vecIdEEEELi3EEEEELi8EEEE10deallocateEPSD_m	0000000000000000 .text._ZN4Grid16alignedAllocatorINS_7iVectorINS_7iScalarINS_7iMatrixINS_9Grid_simdISt7complexIdENS_12Optimization3vecIdEEEELi3EEEEELi8EEEE10deallocateEPSD_m
0000000000000000 l    d  .gcc_except_table._ZN4Grid16alignedAllocatorINS_7iVectorINS_7iScalarINS_7iMatrixINS_9Grid_simdISt7complexIdENS_12Optimization3vecIdEEEELi3EEEEELi8EEEE10deallocateEPSD_m	0000000000000000 .gcc_except_table._ZN4Grid16alignedAllocatorINS_7iVectorINS_7iScalarINS_7iMatrixINS_9Grid_simdISt7complexIdENS_12Optimization3vecIdEEEELi3EEEEELi8EEEE10deallocateEPSD_m
0000000000000000 l       .gcc_except_table._ZN4Grid16alignedAllocatorINS_7iVectorINS_7iScalarINS_7iMatrixINS_9Grid_simdISt7complexIdENS_12Optimization3vecIdEEEELi3EEEEELi8EEEE10deallocateEPSD_m	0000000000000000 GCC_except_table107
0000000000000000 l    d  .text._ZN4Grid12devAllocatorINS_12StencilEntryEE10deallocateEPS1_m	0000000000000000 .text._ZN4Grid12devAllocatorINS_12StencilEntryEE10deallocateEPS1_m
0000000000000000 l    d  .gcc_except_table._ZN4Grid12devAllocatorINS_12StencilEntryEE10deallocateEPS1_m	0000000000000000 .gcc_except_table._ZN4Grid12devAllocatorINS_12StencilEntryEE10deallocateEPS1_m
0000000000000000 l       .gcc_except_table._ZN4Grid12devAllocatorINS_12StencilEntryEE10deallocateEPS1_m	0000000000000000 GCC_except_table108
0000000000000000 l    d  .text._ZN4Grid16alignedAllocatorINS_12StencilEntryEE10deallocateEPS1_m	0000000000000000 .text._ZN4Grid16alignedAllocatorINS_12StencilEntryEE10deallocateEPS1_m
0000000000000000 l    d  .gcc_except_table._ZN4Grid16alignedAllocatorINS_12StencilEntryEE10deallocateEPS1_m	0000000000000000 .gcc_except_table._ZN4Grid16alignedAllocatorINS_12StencilEntryEE10deallocateEPS1_m
0000000000000000 l       .gcc_except_table._ZN4Grid16alignedAllocatorINS_12StencilEntryEE10deallocateEPS1_m	0000000000000000 GCC_except_table109
0000000000000000 l    d  .text._ZN4Grid12devAllocatorISt4pairIiiEE10deallocateEPS2_m	0000000000000000 .text._ZN4Grid12devAllocatorISt4pairIiiEE10deallocateEPS2_m
0000000000000000 l    d  .gcc_except_table._ZN4Grid12devAllocatorISt4pairIiiEE10deallocateEPS2_m	0000000000000000 .gcc_except_table._ZN4Grid12devAllocatorISt4pairIiiEE10deallocateEPS2_m
0000000000000000 l       .gcc_except_table._ZN4Grid12devAllocatorISt4pairIiiEE10deallocateEPS2_m	0000000000000000 GCC_except_table110
0000000000000000 l    d  .text._ZN4Grid16alignedAllocatorINS_7iScalarINS_7iVectorINS2_INS_9Grid_simdISt7complexIdENS_12Optimization3vecIdEEEELi3EEELi4EEEEEE10deallocateEPSC_m	0000000000000000 .text._ZN4Grid16alignedAllocatorINS_7iScalarINS_7iVectorINS2_INS_9Grid_simdISt7complexIdENS_12Optimization3vecIdEEEELi3EEELi4EEEEEE10deallocateEPSC_m
0000000000000000 l    d  .gcc_except_table._ZN4Grid16alignedAllocatorINS_7iScalarINS_7iVectorINS2_INS_9Grid_simdISt7complexIdENS_12Optimization3vecIdEEEELi3EEELi4EEEEEE10deallocateEPSC_m	0000000000000000 .gcc_except_table._ZN4Grid16alignedAllocatorINS_7iScalarINS_7iVectorINS2_INS_9Grid_simdISt7complexIdENS_12Optimization3vecIdEEEELi3EEELi4EEEEEE10deallocateEPSC_m
0000000000000000 l       .gcc_except_table._ZN4Grid16alignedAllocatorINS_7iScalarINS_7iVectorINS2_INS_9Grid_simdISt7complexIdENS_12Optimization3vecIdEEEELi3EEELi4EEEEEE10deallocateEPSC_m	0000000000000000 GCC_except_table111
0000000000000000 l    d  .text.startup	0000000000000000 .text.startup
0000000000000000 l     F .text.startup	0000000000000001 __cxx_global_var_init.56
0000000000000000 l    d  .text._ZN4Grid7LatticeINS_7iScalarINS_7iVectorINS2_INS_9Grid_simdISt7complexIdENS_12Optimization3vecIdEEEELi3EEELi4EEEEEEC2EPNS_8GridBaseENS_8ViewModeE	0000000000000000 .text._ZN4Grid7LatticeINS_7iScalarINS_7iVectorINS2_INS_9Grid_simdISt7complexIdENS_12Optimization3vecIdEEEELi3EEELi4EEEEEEC2EPNS_8GridBaseENS_8ViewModeE
0000000000000000 l    d  .text._ZN4Grid7LatticeINS_7iScalarINS_7iVectorINS2_INS_9Grid_simdISt7complexIdENS_12Optimization3vecIdEEEELi3EEELi4EEEEEE6resizeEm	0000000000000000 .text._ZN4Grid7LatticeINS_7iScalarINS_7iVectorINS2_INS_9Grid_simdISt7complexIdENS_12Optimization3vecIdEEEELi3EEELi4EEEEEE6resizeEm
0000000000000000 l    d  .text._ZN4Grid7LatticeINS_7iScalarINS_7iVectorINS2_INS_9Grid_simdISt7complexIdENS_12Optimization3vecIdEEEELi3EEELi4EEEEEE11SetViewModeENS_8ViewModeE	0000000000000000 .text._ZN4Grid7LatticeINS_7iScalarINS_7iVectorINS2_INS_9Grid_simdISt7complexIdENS_12Optimization3vecIdEEEELi3EEELi4EEEEEE11SetViewModeENS_8ViewModeE
0000000000000000 l    d  .text._ZN4Grid16alignedAllocatorINS_7iScalarINS_7iVectorINS2_INS_9Grid_simdISt7complexIdENS_12Optimization3vecIdEEEELi3EEELi4EEEEEE8allocateEmPKv	0000000000000000 .text._ZN4Grid16alignedAllocatorINS_7iScalarINS_7iVectorINS2_INS_9Grid_simdISt7complexIdENS_12Optimization3vecIdEEEELi3EEELi4EEEEEE8allocateEmPKv
0000000000000000 l    d  .gcc_except_table._ZN4Grid16alignedAllocatorINS_7iScalarINS_7iVectorINS2_INS_9Grid_simdISt7complexIdENS_12Optimization3vecIdEEEELi3EEELi4EEEEEE8allocateEmPKv	0000000000000000 .gcc_except_table._ZN4Grid16alignedAllocatorINS_7iScalarINS_7iVectorINS2_INS_9Grid_simdISt7complexIdENS_12Optimization3vecIdEEEELi3EEELi4EEEEEE8allocateEmPKv
0000000000000000 l       .gcc_except_table._ZN4Grid16alignedAllocatorINS_7iScalarINS_7iVectorINS2_INS_9Grid_simdISt7complexIdENS_12Optimization3vecIdEEEELi3EEELi4EEEEEE8allocateEmPKv	0000000000000000 GCC_except_table116
0000000000000000 l    d  .text._ZN4Grid11LatticeViewINS_7iScalarINS_7iVectorINS2_INS_9Grid_simdISt7complexIdENS_12Optimization3vecIdEEEELi3EEELi4EEEEEEC2ERKNS_18LatticeAcceleratorISC_EENS_8ViewModeE	0000000000000000 .text._ZN4Grid11LatticeViewINS_7iScalarINS_7iVectorINS2_INS_9Grid_simdISt7complexIdENS_12Optimization3vecIdEEEELi3EEELi4EEEEEEC2ERKNS_18LatticeAcceleratorISC_EENS_8ViewModeE
0000000000000000 l    d  .text._ZN4Grid11LatticeViewINS_7iScalarINS_7iVectorINS2_INS_9Grid_simdISt7complexIdENS_12Optimization3vecIdEEEELi3EEELi4EEEEEE8ViewOpenENS_8ViewModeE	0000000000000000 .text._ZN4Grid11LatticeViewINS_7iScalarINS_7iVectorINS2_INS_9Grid_simdISt7complexIdENS_12Optimization3vecIdEEEELi3EEELi4EEEEEE8ViewOpenENS_8ViewModeE
0000000000000000 l    d  .text._ZN4Grid7LatticeINS_7iVectorINS_7iScalarINS_7iMatrixINS_9Grid_simdISt7complexIdENS_12Optimization3vecIdEEEELi3EEEEELi4EEEEaSINS_4ZeroEEERSE_RKT_	0000000000000000 .text._ZN4Grid7LatticeINS_7iVectorINS_7iScalarINS_7iMatrixINS_9Grid_simdISt7complexIdENS_12Optimization3vecIdEEEELi3EEEEELi4EEEEaSINS_4ZeroEEERSE_RKT_
0000000000000000 l    d  .text._ZNK4Grid7LatticeINS_7iVectorINS_7iScalarINS_7iMatrixINS_9Grid_simdISt7complexIdENS_12Optimization3vecIdEEEELi3EEEEELi4EEEE4ViewENS_8ViewModeE	0000000000000000 .text._ZNK4Grid7LatticeINS_7iVectorINS_7iScalarINS_7iMatrixINS_9Grid_simdISt7complexIdENS_12Optimization3vecIdEEEELi3EEEEELi4EEEE4ViewENS_8ViewModeE
0000000000000000 l    d  .text._ZN4Grid11LatticeViewINS_7iVectorINS_7iScalarINS_7iMatrixINS_9Grid_simdISt7complexIdENS_12Optimization3vecIdEEEELi3EEEEELi4EEEEC2ERKNS_18LatticeAcceleratorISD_EENS_8ViewModeE	0000000000000000 .text._ZN4Grid11LatticeViewINS_7iVectorINS_7iScalarINS_7iMatrixINS_9Grid_simdISt7complexIdENS_12Optimization3vecIdEEEELi3EEEEELi4EEEEC2ERKNS_18LatticeAcceleratorISD_EENS_8ViewModeE
0000000000000000 l    d  .text._ZN4Grid11LatticeViewINS_7iVectorINS_7iScalarINS_7iMatrixINS_9Grid_simdISt7complexIdENS_12Optimization3vecIdEEEELi3EEEEELi4EEEE8ViewOpenENS_8ViewModeE	0000000000000000 .text._ZN4Grid11LatticeViewINS_7iVectorINS_7iScalarINS_7iMatrixINS_9Grid_simdISt7complexIdENS_12Optimization3vecIdEEEELi3EEEEELi4EEEE8ViewOpenENS_8ViewModeE
00000000000000b0 l       .rodata.cst16	0000000000000000 .LCPI123_0
0000000000000000 l    d  .text._ZN4Grid3FFTC2EPNS_13GridCartesianE	0000000000000000 .text._ZN4Grid3FFTC2EPNS_13GridCartesianE
0000000000000000 l    d  .gcc_except_table._ZN4Grid3FFTC2EPNS_13GridCartesianE	0000000000000000 .gcc_except_table._ZN4Grid3FFTC2EPNS_13GridCartesianE
0000000000000000 l       .gcc_except_table._ZN4Grid3FFTC2EPNS_13GridCartesianE	0000000000000000 GCC_except_table123
0000000000000000 l    d  .text._ZN4Grid7LatticeINS_7iScalarINS1_INS1_INS_9Grid_simdISt7complexIdENS_12Optimization3vecIdEEEEEEEEEEEC2EPNS_8GridBaseENS_8ViewModeE	0000000000000000 .text._ZN4Grid7LatticeINS_7iScalarINS1_INS1_INS_9Grid_simdISt7complexIdENS_12Optimization3vecIdEEEEEEEEEEEC2EPNS_8GridBaseENS_8ViewModeE
0000000000000000 l    d  .text._ZN4Grid7LatticeINS_7iScalarINS1_INS1_INS_9Grid_simdISt7complexIdENS_12Optimization3vecIdEEEEEEEEEEEaSINS_4ZeroEEERSC_RKT_	0000000000000000 .text._ZN4Grid7LatticeINS_7iScalarINS1_INS1_INS_9Grid_simdISt7complexIdENS_12Optimization3vecIdEEEEEEEEEEEaSINS_4ZeroEEERSC_RKT_
0000000000000000 l    d  .text._ZN4Grid7LatticeINS_7iScalarINS_7iVectorINS2_INS_9Grid_simdISt7complexIdENS_12Optimization3vecIdEEEELi3EEELi4EEEEEEaSINS_4ZeroEEERSD_RKT_	0000000000000000 .text._ZN4Grid7LatticeINS_7iScalarINS_7iVectorINS2_INS_9Grid_simdISt7complexIdENS_12Optimization3vecIdEEEELi3EEELi4EEEEEEaSINS_4ZeroEEERSD_RKT_
0000000000000000 l    d  .text._ZN4Grid17LatticeCoordinateINS_7iScalarINS1_INS1_INS_9Grid_simdISt7complexIdENS_12Optimization3vecIdEEEEEEEEEEEEvRNS_7LatticeIT_EEi	0000000000000000 .text._ZN4Grid17LatticeCoordinateINS_7iScalarINS1_INS1_INS_9Grid_simdISt7complexIdENS_12Optimization3vecIdEEEEEEEEEEEEvRNS_7LatticeIT_EEi
0000000000000000 l    d  .gcc_except_table._ZN4Grid17LatticeCoordinateINS_7iScalarINS1_INS1_INS_9Grid_simdISt7complexIdENS_12Optimization3vecIdEEEEEEEEEEEEvRNS_7LatticeIT_EEi	0000000000000000 .gcc_except_table._ZN4Grid17LatticeCoordinateINS_7iScalarINS1_INS1_INS_9Grid_simdISt7complexIdENS_12Optimization3vecIdEEEEEEEEEEEEvRNS_7LatticeIT_EEi
0000000000000000 l       .gcc_except_table._ZN4Grid17LatticeCoordinateINS_7iScalarINS1_INS1_INS_9Grid_simdISt7complexIdENS_12Optimization3vecIdEEEEEEEEEEEEvRNS_7LatticeIT_EEi	0000000000000000 GCC_except_table127
0000000000000000 l    d  .text._ZN4Grid7LatticeINS_7iScalarINS1_INS1_INS_9Grid_simdISt7complexIdENS_12Optimization3vecIdEEEEEEEEEEEaSINS_9BinaryAddESC_NS_23LatticeBinaryExpressionINS_9BinaryMulENSF_ISG_dSC_EEdEEEERSC_RKNSF_IT_T0_T1_EE	0000000000000000 .text._ZN4Grid7LatticeINS_7iScalarINS1_INS1_INS_9Grid_simdISt7complexIdENS_12Optimization3vecIdEEEEEEEEEEEaSINS_9BinaryAddESC_NS_23LatticeBinaryExpressionINS_9BinaryMulENSF_ISG_dSC_EEdEEEERSC_RKNSF_IT_T0_T1_EE
000000000000c4f0 l     F .text	00000000000000e5 .omp_outlined..63
0000000000000000 l    d  .text._ZN4Grid7LatticeINS_7iScalarINS_7iVectorINS2_INS_9Grid_simdISt7complexIdENS_12Optimization3vecIdEEEELi3EEELi4EEEEEEaSINS_9BinaryMulENS_22LatticeUnaryExpressionINS_8UnaryExpENS_23LatticeBinaryExpressionISF_NSI_ISF_S5_NS0_INS1_INS1_INS1_IS9_EEEEEEEEEEdEEEESD_EERSD_RKNSI_IT_T0_T1_EE	0000000000000000 .text._ZN4Grid7LatticeINS_7iScalarINS_7iVectorINS2_INS_9Grid_simdISt7complexIdENS_12Optimization3vecIdEEEELi3EEELi4EEEEEEaSINS_9BinaryMulENS_22LatticeUnaryExpressionINS_8UnaryExpENS_23LatticeBinaryExpressionISF_NSI_ISF_S5_NS0_INS1_INS1_INS1_IS9_EEEEEEEEEEdEEEESD_EERSD_RKNSI_IT_T0_T1_EE
000000000000c730 l     F .text	00000000000000e5 .omp_outlined..67
0000000000000000 l    d  .text._ZN4Grid7LatticeINS_7iScalarINS_7iVectorINS2_INS_9Grid_simdISt7complexIdENS_12Optimization3vecIdEEEELi3EEELi4EEEEEEaSINS_9BinaryMulESD_NS_22LatticeUnaryExpressionINS_8UnaryExpENS_23LatticeBinaryExpressionISF_S5_NS0_INS1_INS1_INS1_IS9_EEEEEEEEEEEEEERSD_RKNSI_IT_T0_T1_EE	0000000000000000 .text._ZN4Grid7LatticeINS_7iScalarINS_7iVectorINS2_INS_9Grid_simdISt7complexIdENS_12Optimization3vecIdEEEELi3EEELi4EEEEEEaSINS_9BinaryMulESD_NS_22LatticeUnaryExpressionINS_8UnaryExpENS_23LatticeBinaryExpressionISF_S5_NS0_INS1_INS1_INS1_IS9_EEEEEEEEEEEEEERSD_RKNSI_IT_T0_T1_EE
000000000000cdd0 l     F .text	00000000000000e5 .omp_outlined..79
0000000000000000 l    d  .text._ZN4Grid7LatticeINS_7iScalarINS1_INS1_INS_9Grid_simdISt7complexIdENS_12Optimization3vecIdEEEEEEEEEEED2Ev	0000000000000000 .text._ZN4Grid7LatticeINS_7iScalarINS1_INS1_INS_9Grid_simdISt7complexIdENS_12Optimization3vecIdEEEEEEEEEEED2Ev
0000000000000000 l    d  .gcc_except_table._ZN4Grid7LatticeINS_7iScalarINS1_INS1_INS_9Grid_simdISt7complexIdENS_12Optimization3vecIdEEEEEEEEEEED2Ev	0000000000000000 .gcc_except_table._ZN4Grid7LatticeINS_7iScalarINS1_INS1_INS_9Grid_simdISt7complexIdENS_12Optimization3vecIdEEEEEEEEEEED2Ev
0000000000000000 l       .gcc_except_table._ZN4Grid7LatticeINS_7iScalarINS1_INS1_INS_9Grid_simdISt7complexIdENS_12Optimization3vecIdEEEEEEEEEEED2Ev	0000000000000000 GCC_except_table131
00000000000000c0 l       .rodata.cst16	0000000000000000 .LCPI132_0
0000000000000000 l    d  .text._ZN4Grid13GridCartesian4InitERKNS_17AcceleratorVectorIiLi8EEES4_S4_	0000000000000000 .text._ZN4Grid13GridCartesian4InitERKNS_17AcceleratorVectorIiLi8EEES4_S4_
0000000000000000 l    d  .text._ZN4Grid13GridCartesianD0Ev	0000000000000000 .text._ZN4Grid13GridCartesianD0Ev
0000000000000000 l    d  .text._ZN4Grid13GridCartesian14CheckerBoardedEi	0000000000000000 .text._ZN4Grid13GridCartesian14CheckerBoardedEi
0000000000000000 l    d  .text._ZN4Grid13GridCartesian12CheckerBoardERKNS_17AcceleratorVectorIiLi8EEE	0000000000000000 .text._ZN4Grid13GridCartesian12CheckerBoardERKNS_17AcceleratorVectorIiLi8EEE
0000000000000000 l    d  .text._ZN4Grid13GridCartesian23CheckerBoardDestinationEiii	0000000000000000 .text._ZN4Grid13GridCartesian23CheckerBoardDestinationEiii
0000000000000000 l    d  .text._ZN4Grid13GridCartesian17CheckerBoardShiftEiiii	0000000000000000 .text._ZN4Grid13GridCartesian17CheckerBoardShiftEiiii
0000000000000000 l    d  .text._ZN4Grid13GridCartesian22CheckerBoardShiftForCBEiiii	0000000000000000 .text._ZN4Grid13GridCartesian22CheckerBoardShiftForCBEiiii
0000000000000000 l    d  .text._ZN4Grid13GridCartesian22CheckerBoardFromOindexEi	0000000000000000 .text._ZN4Grid13GridCartesian22CheckerBoardFromOindexEi
0000000000000000 l    d  .text._ZN4Grid13GridCartesian27CheckerBoardFromOindexTableEi	0000000000000000 .text._ZN4Grid13GridCartesian27CheckerBoardFromOindexTableEi
0000000000000000 l    d  .text._ZN4Grid8GridBase6oIndexERNS_17AcceleratorVectorIiLi8EEE	0000000000000000 .text._ZN4Grid8GridBase6oIndexERNS_17AcceleratorVectorIiLi8EEE
0000000000000000 l    d  .text._ZN4Grid8GridBase6iIndexERNS_17AcceleratorVectorIiLi8EEE	0000000000000000 .text._ZN4Grid8GridBase6iIndexERNS_17AcceleratorVectorIiLi8EEE
0000000000000000 l    d  .text._ZN4Grid7LatticeINS_7iScalarINS1_INS1_INS_9Grid_simdISt7complexIdENS_12Optimization3vecIdEEEEEEEEEEE6resizeEm	0000000000000000 .text._ZN4Grid7LatticeINS_7iScalarINS1_INS1_INS_9Grid_simdISt7complexIdENS_12Optimization3vecIdEEEEEEEEEEE6resizeEm
0000000000000000 l    d  .text._ZN4Grid7LatticeINS_7iScalarINS1_INS1_INS_9Grid_simdISt7complexIdENS_12Optimization3vecIdEEEEEEEEEEE11SetViewModeENS_8ViewModeE	0000000000000000 .text._ZN4Grid7LatticeINS_7iScalarINS1_INS1_INS_9Grid_simdISt7complexIdENS_12Optimization3vecIdEEEEEEEEEEE11SetViewModeENS_8ViewModeE
0000000000000000 l    d  .text._ZN4Grid16alignedAllocatorINS_7iScalarINS1_INS1_INS_9Grid_simdISt7complexIdENS_12Optimization3vecIdEEEEEEEEEEE8allocateEmPKv	0000000000000000 .text._ZN4Grid16alignedAllocatorINS_7iScalarINS1_INS1_INS_9Grid_simdISt7complexIdENS_12Optimization3vecIdEEEEEEEEEEE8allocateEmPKv
0000000000000000 l    d  .gcc_except_table._ZN4Grid16alignedAllocatorINS_7iScalarINS1_INS1_INS_9Grid_simdISt7complexIdENS_12Optimization3vecIdEEEEEEEEEEE8allocateEmPKv	0000000000000000 .gcc_except_table._ZN4Grid16alignedAllocatorINS_7iScalarINS1_INS1_INS_9Grid_simdISt7complexIdENS_12Optimization3vecIdEEEEEEEEEEE8allocateEmPKv
0000000000000000 l       .gcc_except_table._ZN4Grid16alignedAllocatorINS_7iScalarINS1_INS1_INS_9Grid_simdISt7complexIdENS_12Optimization3vecIdEEEEEEEEEEE8allocateEmPKv	0000000000000000 GCC_except_table145
0000000000000000 l    d  .text._ZN4Grid16alignedAllocatorINS_7iScalarINS1_INS1_INS_9Grid_simdISt7complexIdENS_12Optimization3vecIdEEEEEEEEEEE10deallocateEPSB_m	0000000000000000 .text._ZN4Grid16alignedAllocatorINS_7iScalarINS1_INS1_INS_9Grid_simdISt7complexIdENS_12Optimization3vecIdEEEEEEEEEEE10deallocateEPSB_m
0000000000000000 l    d  .gcc_except_table._ZN4Grid16alignedAllocatorINS_7iScalarINS1_INS1_INS_9Grid_simdISt7complexIdENS_12Optimization3vecIdEEEEEEEEEEE10deallocateEPSB_m	0000000000000000 .gcc_except_table._ZN4Grid16alignedAllocatorINS_7iScalarINS1_INS1_INS_9Grid_simdISt7complexIdENS_12Optimization3vecIdEEEEEEEEEEE10deallocateEPSB_m
0000000000000000 l       .gcc_except_table._ZN4Grid16alignedAllocatorINS_7iScalarINS1_INS1_INS_9Grid_simdISt7complexIdENS_12Optimization3vecIdEEEEEEEEEEE10deallocateEPSB_m	0000000000000000 GCC_except_table146
0000000000000000 l    d  .text._ZN4Grid11LatticeViewINS_7iScalarINS1_INS1_INS_9Grid_simdISt7complexIdENS_12Optimization3vecIdEEEEEEEEEEEC2ERKNS_18LatticeAcceleratorISB_EENS_8ViewModeE	0000000000000000 .text._ZN4Grid11LatticeViewINS_7iScalarINS1_INS1_INS_9Grid_simdISt7complexIdENS_12Optimization3vecIdEEEEEEEEEEEC2ERKNS_18LatticeAcceleratorISB_EENS_8ViewModeE
0000000000000000 l    d  .text._ZNK4Grid7LatticeINS_7iScalarINS1_INS1_INS_9Grid_simdISt7complexIdENS_12Optimization3vecIdEEEEEEEEEEE4ViewENS_8ViewModeE	0000000000000000 .text._ZNK4Grid7LatticeINS_7iScalarINS1_INS1_INS_9Grid_simdISt7complexIdENS_12Optimization3vecIdEEEEEEEEEEE4ViewENS_8ViewModeE
0000000000000000 l    d  .text._ZNK4Grid7LatticeINS_7iScalarINS_7iVectorINS2_INS_9Grid_simdISt7complexIdENS_12Optimization3vecIdEEEELi3EEELi4EEEEEE4ViewENS_8ViewModeE	0000000000000000 .text._ZNK4Grid7LatticeINS_7iScalarINS_7iVectorINS2_INS_9Grid_simdISt7complexIdENS_12Optimization3vecIdEEEELi3EEELi4EEEEEE4ViewENS_8ViewModeE
0000000000000000 l    d  .text._ZN4Grid10ViewCloserINS_11LatticeViewINS_7iScalarINS2_INS2_INS_9Grid_simdISt7complexIdENS_12Optimization3vecIdEEEEEEEEEEEEED2Ev	0000000000000000 .text._ZN4Grid10ViewCloserINS_11LatticeViewINS_7iScalarINS2_INS2_INS_9Grid_simdISt7complexIdENS_12Optimization3vecIdEEEEEEEEEEEEED2Ev
0000000000000000 l    d  .gcc_except_table._ZN4Grid10ViewCloserINS_11LatticeViewINS_7iScalarINS2_INS2_INS_9Grid_simdISt7complexIdENS_12Optimization3vecIdEEEEEEEEEEEEED2Ev	0000000000000000 .gcc_except_table._ZN4Grid10ViewCloserINS_11LatticeViewINS_7iScalarINS2_INS2_INS_9Grid_simdISt7complexIdENS_12Optimization3vecIdEEEEEEEEEEEEED2Ev
0000000000000000 l       .gcc_except_table._ZN4Grid10ViewCloserINS_11LatticeViewINS_7iScalarINS2_INS2_INS_9Grid_simdISt7complexIdENS_12Optimization3vecIdEEEEEEEEEEEEED2Ev	0000000000000000 GCC_except_table150
000000000000c5e0 l     F .text	000000000000014d .omp_outlined..64
0000000000000018 l       .rodata.cst8	0000000000000000 .LCPI152_0
00000000000000d0 l       .rodata.cst16	0000000000000000 .LCPI152_1
0000000000000000 l    d  .text._ZN4Grid11LatticeViewINS_7iScalarINS_7iVectorINS2_INS_9Grid_simdISt7complexIdENS_12Optimization3vecIdEEEELi3EEELi4EEEEEEC2ERKNS_18LatticeAcceleratorISC_EE	0000000000000000 .text._ZN4Grid11LatticeViewINS_7iScalarINS_7iVectorINS2_INS_9Grid_simdISt7complexIdENS_12Optimization3vecIdEEEELi3EEELi4EEEEEEC2ERKNS_18LatticeAcceleratorISC_EE
000000000000c820 l     F .text	0000000000000346 .omp_outlined..68
0000000000000020 l       .rodata.cst8	0000000000000000 .LCPI155_0
0000000000000028 l       .rodata.cst8	0000000000000000 .LCPI155_1
0000000000000000 l    d  .text._ZN4Grid16CBFromExpressionINS_11LatticeViewINS_7iScalarINS_7iVectorINS3_INS_9Grid_simdISt7complexIdENS_12Optimization3vecIdEEEELi3EEELi4EEEEEEELPSE_0EEEvRiRKT_	0000000000000000 .text._ZN4Grid16CBFromExpressionINS_11LatticeViewINS_7iScalarINS_7iVectorINS3_INS_9Grid_simdISt7complexIdENS_12Optimization3vecIdEEEELi3EEELi4EEEEEEELPSE_0EEEvRiRKT_
0000000000000000 l    d  .text._ZN4Grid3FFT12FFT_dim_maskINS_7iScalarINS_7iVectorINS3_INS_9Grid_simdISt7complexIdENS_12Optimization3vecIdEEEELi3EEELi4EEEEEEEvRNS_7LatticeIT_EERKSG_NS_17AcceleratorVectorIiLi8EEEi	0000000000000000 .text._ZN4Grid3FFT12FFT_dim_maskINS_7iScalarINS_7iVectorINS3_INS_9Grid_simdISt7complexIdENS_12Optimization3vecIdEEEELi3EEELi4EEEEEEEvRNS_7LatticeIT_EERKSG_NS_17AcceleratorVectorIiLi8EEEi
0000000000000000 l    d  .gcc_except_table._ZN4Grid3FFT12FFT_dim_maskINS_7iScalarINS_7iVectorINS3_INS_9Grid_simdISt7complexIdENS_12Optimization3vecIdEEEELi3EEELi4EEEEEEEvRNS_7LatticeIT_EERKSG_NS_17AcceleratorVectorIiLi8EEEi	0000000000000000 .gcc_except_table._ZN4Grid3FFT12FFT_dim_maskINS_7iScalarINS_7iVectorINS3_INS_9Grid_simdISt7complexIdENS_12Optimization3vecIdEEEELi3EEELi4EEEEEEEvRNS_7LatticeIT_EERKSG_NS_17AcceleratorVectorIiLi8EEEi
0000000000000000 l       .gcc_except_table._ZN4Grid3FFT12FFT_dim_maskINS_7iScalarINS_7iVectorINS3_INS_9Grid_simdISt7complexIdENS_12Optimization3vecIdEEEELi3EEELi4EEEEEEEvRNS_7LatticeIT_EERKSG_NS_17AcceleratorVectorIiLi8EEEi	0000000000000000 GCC_except_table157
0000000000000000 l    d  .text._ZN4Grid7LatticeINS_7iScalarINS_7iVectorINS2_INS_9Grid_simdISt7complexIdENS_12Optimization3vecIdEEEELi3EEELi4EEEEEEaSERKSD_	0000000000000000 .text._ZN4Grid7LatticeINS_7iScalarINS_7iVectorINS2_INS_9Grid_simdISt7complexIdENS_12Optimization3vecIdEEEELi3EEELi4EEEEEEaSERKSD_
000000000000cb70 l     F .text	00000000000000e5 .omp_outlined..71
0000000000000000 l    d  .text._ZN4Grid11conformableINS_7iScalarINS_7iVectorINS2_INS_9Grid_simdISt7complexIdENS_12Optimization3vecIdEEEELi3EEELi4EEEEESC_EEvRKNS_7LatticeIT_EERKNSD_IT0_EE	0000000000000000 .text._ZN4Grid11conformableINS_7iScalarINS_7iVectorINS2_INS_9Grid_simdISt7complexIdENS_12Optimization3vecIdEEEELi3EEELi4EEEEESC_EEvRKNS_7LatticeIT_EERKNSD_IT0_EE
000000000000cc60 l     F .text	0000000000000166 .omp_outlined..72
000000000000cec0 l     F .text	0000000000000462 .omp_outlined..80
00000000000000e0 l       .rodata.cst16	0000000000000000 .LCPI163_0
0000000000000010 l     F .text.startup	0000000000000021 _GLOBAL__sub_I_WilsonFermionInstantiationWilsonImplD.cc
0000000000000000 l     O .bss	0000000000000001 _ZStL8__ioinit
0000000000000040 l     F .text.startup	000000000000000a .omp_offloading.requires_reg
0000000000000000 l    d  .bss	0000000000000000 .bss
0000000000000001 l     O .bss	0000000000000001 _ZN5EigenL4lastE
0000000000000002 l     O .bss	0000000000000002 _ZN5EigenL6lastp1E
0000000000000004 l     O .bss	0000000000000001 _ZN5EigenL3fixILi1EEE
0000000000000005 l     O .bss	0000000000000001 _ZN5EigenL3allE
0000000000000000 l    d  .rodata.str1.1	0000000000000000 .rodata.str1.1
0000000000000000 l     O .rodata.str1.16	0000000000000114 .omp_offloading.entry_name
0000000000000000 l    d  .rodata.str1.16	0000000000000000 .rodata.str1.16
0000000000000120 l     O .rodata.str1.16	0000000000000131 .omp_offloading.entry_name.84
0000000000000260 l     O .rodata.str1.16	0000000000000102 .omp_offloading.entry_name.85
0000000000000370 l     O .rodata.str1.16	00000000000000ee .omp_offloading.entry_name.86
0000000000000460 l     O .rodata.str1.16	000000000000013b .omp_offloading.entry_name.87
00000000000005a0 l     O .rodata.str1.16	000000000000009e .omp_offloading.entry_name.88
0000000000000640 l     O .rodata.str1.16	0000000000000130 .omp_offloading.entry_name.89
0000000000000000  w    F .text._ZN4Grid15FermionOperatorINS_10WilsonImplINS_9Grid_simdISt7complexIdENS_12Optimization3vecIdEEEENS_14FundamentalRepILi3EEENS_9CoeffRealEEEE4GridEv	0000000000000009 _ZN4Grid15FermionOperatorINS_10WilsonImplINS_9Grid_simdISt7complexIdENS_12Optimization3vecIdEEEENS_14FundamentalRepILi3EEENS_9CoeffRealEEEE4GridEv
0000000000000000  w    F .text._ZN4Grid16SparseMatrixBaseINS_7LatticeINS_7iScalarINS_7iVectorINS3_INS_9Grid_simdISt7complexIdENS_12Optimization3vecIdEEEELi3EEELi4EEEEEEEE5MdagMERKSE_RSE_	000000000000008b _ZN4Grid16SparseMatrixBaseINS_7LatticeINS_7iScalarINS_7iVectorINS3_INS_9Grid_simdISt7complexIdENS_12Optimization3vecIdEEEELi3EEELi4EEEEEEEE5MdagMERKSE_RSE_
0000000000000000  w    F .text._ZN4Grid7LatticeINS_7iScalarINS_7iVectorINS2_INS_9Grid_simdISt7complexIdENS_12Optimization3vecIdEEEELi3EEELi4EEEEEEC2EPNS_8GridBaseENS_8ViewModeE	000000000000021c _ZN4Grid7LatticeINS_7iScalarINS_7iVectorINS2_INS_9Grid_simdISt7complexIdENS_12Optimization3vecIdEEEELi3EEELi4EEEEEEC2EPNS_8GridBaseENS_8ViewModeE
0000000000000000  w    F .text._ZN4Grid16alignedAllocatorINS_7iScalarINS_7iVectorINS2_INS_9Grid_simdISt7complexIdENS_12Optimization3vecIdEEEELi3EEELi4EEEEEE10deallocateEPSC_m	000000000000100e _ZN4Grid16alignedAllocatorINS_7iScalarINS_7iVectorINS2_INS_9Grid_simdISt7complexIdENS_12Optimization3vecIdEEEELi3EEELi4EEEEEE10deallocateEPSC_m
0000000000000000  w    F .text.__clang_call_terminate	000000000000000b .hidden __clang_call_terminate
0000000000000000  w    F .text._ZN4Grid7LatticeINS_7iScalarINS_7iVectorINS2_INS_9Grid_simdISt7complexIdENS_12Optimization3vecIdEEEELi3EEELi4EEEEEED2Ev	0000000000000037 _ZN4Grid7LatticeINS_7iScalarINS_7iVectorINS2_INS_9Grid_simdISt7complexIdENS_12Optimization3vecIdEEEELi3EEELi4EEEEEED2Ev
0000000000000000         *UND*	0000000000000000 _Unwind_Resume
0000000000000000  w    F .text._ZN4Grid15FermionOperatorINS_10WilsonImplINS_9Grid_simdISt7complexIdENS_12Optimization3vecIdEEEENS_14FundamentalRepILi3EEENS_9CoeffRealEEEE5MdiagERKNS_7LatticeINS_7iScalarINS_7iVectorINSG_IS8_Li3EEELi4EEEEEEERSK_	0000000000000009 _ZN4Grid15FermionOperatorINS_10WilsonImplINS_9Grid_simdISt7complexIdENS_12Optimization3vecIdEEEENS_14FundamentalRepILi3EEENS_9CoeffRealEEEE5MdiagERKNS_7LatticeINS_7iScalarINS_7iVectorINSG_IS8_Li3EEELi4EEEEEEERSK_
0000000000000000  w    F .text._ZN4Grid13WilsonFermionINS_10WilsonImplINS_9Grid_simdISt7complexIdENS_12Optimization3vecIdEEEENS_14FundamentalRepILi3EEENS_9CoeffRealEEEED2Ev	000000000000015b _ZN4Grid13WilsonFermionINS_10WilsonImplINS_9Grid_simdISt7complexIdENS_12Optimization3vecIdEEEENS_14FundamentalRepILi3EEENS_9CoeffRealEEEED2Ev
0000000000000000  w    O .rodata._ZTVN4Grid13WilsonFermionINS_10WilsonImplINS_9Grid_simdISt7complexIdENS_12Optimization3vecIdEEEENS_14FundamentalRepILi3EEENS_9CoeffRealEEEEE	00000000000001a8 _ZTVN4Grid13WilsonFermionINS_10WilsonImplINS_9Grid_simdISt7complexIdENS_12Optimization3vecIdEEEENS_14FundamentalRepILi3EEENS_9CoeffRealEEEEE
0000000000000000  w    F .text._ZN4Grid12uvmAllocatorIiE10deallocateEPim	000000000000100f _ZN4Grid12uvmAllocatorIiE10deallocateEPim
0000000000000000  w    F .text._ZN4Grid16alignedAllocatorINS_7iVectorINS_7iScalarINS_7iMatrixINS_9Grid_simdISt7complexIdENS_12Optimization3vecIdEEEELi3EEEEELi8EEEE10deallocateEPSD_m	000000000000100e _ZN4Grid16alignedAllocatorINS_7iVectorINS_7iScalarINS_7iMatrixINS_9Grid_simdISt7complexIdENS_12Optimization3vecIdEEEELi3EEEEELi8EEEE10deallocateEPSD_m
0000000000000000  w    F .text._ZN4Grid16CartesianStencilINS_7iScalarINS_7iVectorINS2_INS_9Grid_simdISt7complexIdENS_12Optimization3vecIdEEEELi3EEELi4EEEEENS1_INS2_ISA_Li2EEEEENS_16WilsonImplParamsEED2Ev	0000000000000256 _ZN4Grid16CartesianStencilINS_7iScalarINS_7iVectorINS2_INS_9Grid_simdISt7complexIdENS_12Optimization3vecIdEEEELi3EEELi4EEEEENS1_INS2_ISA_Li2EEEEENS_16WilsonImplParamsEED2Ev
0000000000000000  w    F .text._ZN4Grid13WilsonFermionINS_10WilsonImplINS_9Grid_simdISt7complexIdENS_12Optimization3vecIdEEEENS_14FundamentalRepILi3EEENS_9CoeffRealEEEED0Ev	0000000000000012 _ZN4Grid13WilsonFermionINS_10WilsonImplINS_9Grid_simdISt7complexIdENS_12Optimization3vecIdEEEENS_14FundamentalRepILi3EEENS_9CoeffRealEEEED0Ev
0000000000000000         *UND*	0000000000000000 _ZdlPv
0000000000000000  w    F .text._ZN4Grid15FermionOperatorINS_10WilsonImplINS_9Grid_simdISt7complexIdENS_12Optimization3vecIdEEEENS_14FundamentalRepILi3EEENS_9CoeffRealEEEE12RedBlackGridEv	0000000000000009 _ZN4Grid15FermionOperatorINS_10WilsonImplINS_9Grid_simdISt7complexIdENS_12Optimization3vecIdEEEENS_14FundamentalRepILi3EEENS_9CoeffRealEEEE12RedBlackGridEv
0000000000000000  w    F .text._ZN4Grid13WilsonFermionINS_10WilsonImplINS_9Grid_simdISt7complexIdENS_12Optimization3vecIdEEEENS_14FundamentalRepILi3EEENS_9CoeffRealEEEE4MassEv	0000000000000009 _ZN4Grid13WilsonFermionINS_10WilsonImplINS_9Grid_simdISt7complexIdENS_12Optimization3vecIdEEEENS_14FundamentalRepILi3EEENS_9CoeffRealEEEE4MassEv
0000000000000000  w    F .text._ZN4Grid30CheckerBoardedSparseMatrixBaseINS_7LatticeINS_7iScalarINS_7iVectorINS3_INS_9Grid_simdISt7complexIdENS_12Optimization3vecIdEEEELi3EEELi4EEEEEEEE7ConstEEEv	0000000000000006 _ZN4Grid30CheckerBoardedSparseMatrixBaseINS_7LatticeINS_7iScalarINS_7iVectorINS3_INS_9Grid_simdISt7complexIdENS_12Optimization3vecIdEEEELi3EEELi4EEEEEEEE7ConstEEEv
0000000000000000  w    F .text._ZN4Grid13WilsonFermionINS_10WilsonImplINS_9Grid_simdISt7complexIdENS_12Optimization3vecIdEEEENS_14FundamentalRepILi3EEENS_9CoeffRealEEEE11isTrivialEEEv	0000000000000006 _ZN4Grid13WilsonFermionINS_10WilsonImplINS_9Grid_simdISt7complexIdENS_12Optimization3vecIdEEEENS_14FundamentalRepILi3EEENS_9CoeffRealEEEE11isTrivialEEEv
0000000000000000  w    F .text._ZN4Grid13WilsonFermionINS_10WilsonImplINS_9Grid_simdISt7complexIdENS_12Optimization3vecIdEEEENS_14FundamentalRepILi3EEENS_9CoeffRealEEEE3tmpEv	0000000000000008 _ZN4Grid13WilsonFermionINS_10WilsonImplINS_9Grid_simdISt7complexIdENS_12Optimization3vecIdEEEENS_14FundamentalRepILi3EEENS_9CoeffRealEEEE3tmpEv
0000000000000000  w    F .text._ZN4Grid15FermionOperatorINS_10WilsonImplINS_9Grid_simdISt7complexIdENS_12Optimization3vecIdEEEENS_14FundamentalRepILi3EEENS_9CoeffRealEEEE14DirichletBlockERKNS_17AcceleratorVectorIiLi8EEE	000000000000001a _ZN4Grid15FermionOperatorINS_10WilsonImplINS_9Grid_simdISt7complexIdENS_12Optimization3vecIdEEEENS_14FundamentalRepILi3EEENS_9CoeffRealEEEE14DirichletBlockERKNS_17AcceleratorVectorIiLi8EEE
0000000000000000         *UND*	0000000000000000 __assert_fail
0000000000000000  w    F .text._ZN4Grid13WilsonFermionINS_10WilsonImplINS_9Grid_simdISt7complexIdENS_12Optimization3vecIdEEEENS_14FundamentalRepILi3EEENS_9CoeffRealEEEE11FermionGridEv	0000000000000008 _ZN4Grid13WilsonFermionINS_10WilsonImplINS_9Grid_simdISt7complexIdENS_12Optimization3vecIdEEEENS_14FundamentalRepILi3EEENS_9CoeffRealEEEE11FermionGridEv
0000000000000000  w    F .text._ZN4Grid13WilsonFermionINS_10WilsonImplINS_9Grid_simdISt7complexIdENS_12Optimization3vecIdEEEENS_14FundamentalRepILi3EEENS_9CoeffRealEEEE19FermionRedBlackGridEv	0000000000000008 _ZN4Grid13WilsonFermionINS_10WilsonImplINS_9Grid_simdISt7complexIdENS_12Optimization3vecIdEEEENS_14FundamentalRepILi3EEENS_9CoeffRealEEEE19FermionRedBlackGridEv
0000000000000000  w    F .text._ZN4Grid13WilsonFermionINS_10WilsonImplINS_9Grid_simdISt7complexIdENS_12Optimization3vecIdEEEENS_14FundamentalRepILi3EEENS_9CoeffRealEEEE9GaugeGridEv	0000000000000008 _ZN4Grid13WilsonFermionINS_10WilsonImplINS_9Grid_simdISt7complexIdENS_12Optimization3vecIdEEEENS_14FundamentalRepILi3EEENS_9CoeffRealEEEE9GaugeGridEv
0000000000000000  w    F .text._ZN4Grid13WilsonFermionINS_10WilsonImplINS_9Grid_simdISt7complexIdENS_12Optimization3vecIdEEEENS_14FundamentalRepILi3EEENS_9CoeffRealEEEE17GaugeRedBlackGridEv	0000000000000008 _ZN4Grid13WilsonFermionINS_10WilsonImplINS_9Grid_simdISt7complexIdENS_12Optimization3vecIdEEEENS_14FundamentalRepILi3EEENS_9CoeffRealEEEE17GaugeRedBlackGridEv
0000000000000000  w    F .text._ZN4Grid15FermionOperatorINS_10WilsonImplINS_9Grid_simdISt7complexIdENS_12Optimization3vecIdEEEENS_14FundamentalRepILi3EEENS_9CoeffRealEEEE6MDerivERNS_7LatticeINS_7iVectorINS_7iScalarINS_7iMatrixIS8_Li3EEEEELi4EEEEERKNSE_INSG_INSF_INSF_IS8_Li3EEELi4EEEEEEESS_i	000000000000000c _ZN4Grid15FermionOperatorINS_10WilsonImplINS_9Grid_simdISt7complexIdENS_12Optimization3vecIdEEEENS_14FundamentalRepILi3EEENS_9CoeffRealEEEE6MDerivERNS_7LatticeINS_7iVectorINS_7iScalarINS_7iMatrixIS8_Li3EEEEELi4EEEEERKNSE_INSG_INSF_INSF_IS8_Li3EEELi4EEEEEEESS_i
0000000000000000  w    F .text._ZN4Grid15FermionOperatorINS_10WilsonImplINS_9Grid_simdISt7complexIdENS_12Optimization3vecIdEEEENS_14FundamentalRepILi3EEENS_9CoeffRealEEEE8MoeDerivERNS_7LatticeINS_7iVectorINS_7iScalarINS_7iMatrixIS8_Li3EEEEELi4EEEEERKNSE_INSG_INSF_INSF_IS8_Li3EEELi4EEEEEEESS_i	000000000000000c _ZN4Grid15FermionOperatorINS_10WilsonImplINS_9Grid_simdISt7complexIdENS_12Optimization3vecIdEEEENS_14FundamentalRepILi3EEENS_9CoeffRealEEEE8MoeDerivERNS_7LatticeINS_7iVectorINS_7iScalarINS_7iMatrixIS8_Li3EEEEELi4EEEEERKNSE_INSG_INSF_INSF_IS8_Li3EEELi4EEEEEEESS_i
0000000000000000  w    F .text._ZN4Grid15FermionOperatorINS_10WilsonImplINS_9Grid_simdISt7complexIdENS_12Optimization3vecIdEEEENS_14FundamentalRepILi3EEENS_9CoeffRealEEEE8MeoDerivERNS_7LatticeINS_7iVectorINS_7iScalarINS_7iMatrixIS8_Li3EEEEELi4EEEEERKNSE_INSG_INSF_INSF_IS8_Li3EEELi4EEEEEEESS_i	000000000000000c _ZN4Grid15FermionOperatorINS_10WilsonImplINS_9Grid_simdISt7complexIdENS_12Optimization3vecIdEEEENS_14FundamentalRepILi3EEENS_9CoeffRealEEEE8MeoDerivERNS_7LatticeINS_7iVectorINS_7iScalarINS_7iMatrixIS8_Li3EEEEELi4EEEEERKNSE_INSG_INSF_INSF_IS8_Li3EEELi4EEEEEEESS_i
0000000000000000  w    F .text._ZN4Grid15FermionOperatorINS_10WilsonImplINS_9Grid_simdISt7complexIdENS_12Optimization3vecIdEEEENS_14FundamentalRepILi3EEENS_9CoeffRealEEEE8MooDerivERNS_7LatticeINS_7iVectorINS_7iScalarINS_7iMatrixIS8_Li3EEEEELi4EEEEERKNSE_INSG_INSF_INSF_IS8_Li3EEELi4EEEEEEESS_i	000000000000000e _ZN4Grid15FermionOperatorINS_10WilsonImplINS_9Grid_simdISt7complexIdENS_12Optimization3vecIdEEEENS_14FundamentalRepILi3EEENS_9CoeffRealEEEE8MooDerivERNS_7LatticeINS_7iVectorINS_7iScalarINS_7iMatrixIS8_Li3EEEEELi4EEEEERKNSE_INSG_INSF_INSF_IS8_Li3EEELi4EEEEEEESS_i
0000000000000000  w    F .text._ZN4Grid7LatticeINS_7iVectorINS_7iScalarINS_7iMatrixINS_9Grid_simdISt7complexIdENS_12Optimization3vecIdEEEELi3EEEEELi4EEEEaSINS_4ZeroEEERSE_RKT_	00000000000000e3 _ZN4Grid7LatticeINS_7iVectorINS_7iScalarINS_7iMatrixINS_9Grid_simdISt7complexIdENS_12Optimization3vecIdEEEELi3EEEEELi4EEEEaSINS_4ZeroEEERSE_RKT_
0000000000000000  w    F .text._ZN4Grid15FermionOperatorINS_10WilsonImplINS_9Grid_simdISt7complexIdENS_12Optimization3vecIdEEEENS_14FundamentalRepILi3EEENS_9CoeffRealEEEE8MeeDerivERNS_7LatticeINS_7iVectorINS_7iScalarINS_7iMatrixIS8_Li3EEEEELi4EEEEERKNSE_INSG_INSF_INSF_IS8_Li3EEELi4EEEEEEESS_i	000000000000000e _ZN4Grid15FermionOperatorINS_10WilsonImplINS_9Grid_simdISt7complexIdENS_12Optimization3vecIdEEEENS_14FundamentalRepILi3EEENS_9CoeffRealEEEE8MeeDerivERNS_7LatticeINS_7iVectorINS_7iScalarINS_7iMatrixIS8_Li3EEEEELi4EEEEERKNSE_INSG_INSF_INSF_IS8_Li3EEELi4EEEEEEESS_i
0000000000000000  w    F .text._ZN4Grid15FermionOperatorINS_10WilsonImplINS_9Grid_simdISt7complexIdENS_12Optimization3vecIdEEEENS_14FundamentalRepILi3EEENS_9CoeffRealEEEE14FreePropagatorERKNS_7LatticeINS_7iScalarINS_7iVectorINSG_IS8_Li3EEELi4EEEEEEERSK_dSt6vectorIS4_SaIS4_EESO_IdSaIdEE	0000000000000e2f _ZN4Grid15FermionOperatorINS_10WilsonImplINS_9Grid_simdISt7complexIdENS_12Optimization3vecIdEEEENS_14FundamentalRepILi3EEENS_9CoeffRealEEEE14FreePropagatorERKNS_7LatticeINS_7iScalarINS_7iVectorINSG_IS8_Li3EEELi4EEEEEEERSK_dSt6vectorIS4_SaIS4_EESO_IdSaIdEE
0000000000000000  w    F .text._ZN4Grid3FFTC2EPNS_13GridCartesianE	000000000000024b _ZN4Grid3FFTC2EPNS_13GridCartesianE
0000000000000000  w    F .text._ZN4Grid7LatticeINS_7iScalarINS1_INS1_INS_9Grid_simdISt7complexIdENS_12Optimization3vecIdEEEEEEEEEEEC2EPNS_8GridBaseENS_8ViewModeE	000000000000021c _ZN4Grid7LatticeINS_7iScalarINS1_INS1_INS_9Grid_simdISt7complexIdENS_12Optimization3vecIdEEEEEEEEEEEC2EPNS_8GridBaseENS_8ViewModeE
0000000000000000  w    F .text._ZN4Grid7LatticeINS_7iScalarINS1_INS1_INS_9Grid_simdISt7complexIdENS_12Optimization3vecIdEEEEEEEEEEEaSINS_4ZeroEEERSC_RKT_	00000000000000f7 _ZN4Grid7LatticeINS_7iScalarINS1_INS1_INS_9Grid_simdISt7complexIdENS_12Optimization3vecIdEEEEEEEEEEEaSINS_4ZeroEEERSC_RKT_
0000000000000000  w    F .text._ZN4Grid7LatticeINS_7iScalarINS_7iVectorINS2_INS_9Grid_simdISt7complexIdENS_12Optimization3vecIdEEEELi3EEELi4EEEEEEaSINS_4ZeroEEERSD_RKT_	00000000000000e3 _ZN4Grid7LatticeINS_7iScalarINS_7iVectorINS2_INS_9Grid_simdISt7complexIdENS_12Optimization3vecIdEEEELi3EEELi4EEEEEEaSINS_4ZeroEEERSD_RKT_
0000000000000000  w    F .text._ZN4Grid17LatticeCoordinateINS_7iScalarINS1_INS1_INS_9Grid_simdISt7complexIdENS_12Optimization3vecIdEEEEEEEEEEEEvRNS_7LatticeIT_EEi	000000000000020a _ZN4Grid17LatticeCoordinateINS_7iScalarINS1_INS1_INS_9Grid_simdISt7complexIdENS_12Optimization3vecIdEEEEEEEEEEEEvRNS_7LatticeIT_EEi
0000000000000000         *UND*	0000000000000000 acos
0000000000000000  w    F .text._ZN4Grid11LatticeViewINS_7iScalarINS1_INS1_INS_9Grid_simdISt7complexIdENS_12Optimization3vecIdEEEEEEEEEEEC2ERKNS_18LatticeAcceleratorISB_EE	00000000000000ab _ZN4Grid11LatticeViewINS_7iScalarINS1_INS1_INS_9Grid_simdISt7complexIdENS_12Optimization3vecIdEEEEEEEEEEEC2ERKNS_18LatticeAcceleratorISB_EE
0000000000000000  w    F .text._ZN4Grid7LatticeINS_7iScalarINS1_INS1_INS_9Grid_simdISt7complexIdENS_12Optimization3vecIdEEEEEEEEEEEaSINS_9BinaryAddESC_NS_23LatticeBinaryExpressionINS_9BinaryMulENSF_ISG_dSC_EEdEEEERSC_RKNSF_IT_T0_T1_EE	00000000000003d2 _ZN4Grid7LatticeINS_7iScalarINS1_INS1_INS_9Grid_simdISt7complexIdENS_12Optimization3vecIdEEEEEEEEEEEaSINS_9BinaryAddESC_NS_23LatticeBinaryExpressionINS_9BinaryMulENSF_ISG_dSC_EEdEEEERSC_RKNSF_IT_T0_T1_EE
0000000000000000  w    F .text._ZN4Grid11LatticeViewINS_7iScalarINS_7iVectorINS2_INS_9Grid_simdISt7complexIdENS_12Optimization3vecIdEEEELi3EEELi4EEEEEEC2ERKNS_18LatticeAcceleratorISC_EE	00000000000000ab _ZN4Grid11LatticeViewINS_7iScalarINS_7iVectorINS2_INS_9Grid_simdISt7complexIdENS_12Optimization3vecIdEEEELi3EEELi4EEEEEEC2ERKNS_18LatticeAcceleratorISC_EE
0000000000000000  w    F .text._ZN4Grid7LatticeINS_7iScalarINS_7iVectorINS2_INS_9Grid_simdISt7complexIdENS_12Optimization3vecIdEEEELi3EEELi4EEEEEEaSINS_9BinaryMulENS_22LatticeUnaryExpressionINS_8UnaryExpENS_23LatticeBinaryExpressionISF_NSI_ISF_S5_NS0_INS1_INS1_INS1_IS9_EEEEEEEEEEdEEEESD_EERSD_RKNSI_IT_T0_T1_EE	00000000000003d2 _ZN4Grid7LatticeINS_7iScalarINS_7iVectorINS2_INS_9Grid_simdISt7complexIdENS_12Optimization3vecIdEEEELi3EEELi4EEEEEEaSINS_9BinaryMulENS_22LatticeUnaryExpressionINS_8UnaryExpENS_23LatticeBinaryExpressionISF_NSI_ISF_S5_NS0_INS1_INS1_INS1_IS9_EEEEEEEEEEdEEEESD_EERSD_RKNSI_IT_T0_T1_EE
0000000000000000  w    F .text._ZN4Grid3FFT12FFT_dim_maskINS_7iScalarINS_7iVectorINS3_INS_9Grid_simdISt7complexIdENS_12Optimization3vecIdEEEELi3EEELi4EEEEEEEvRNS_7LatticeIT_EERKSG_NS_17AcceleratorVectorIiLi8EEEi	00000000000000ce _ZN4Grid3FFT12FFT_dim_maskINS_7iScalarINS_7iVectorINS3_INS_9Grid_simdISt7complexIdENS_12Optimization3vecIdEEEELi3EEELi4EEEEEEEvRNS_7LatticeIT_EERKSG_NS_17AcceleratorVectorIiLi8EEEi
0000000000000000         *UND*	0000000000000000 _Znwm
0000000000000000         *UND*	0000000000000000 memmove
0000000000000000  w    F .text._ZN4Grid7LatticeINS_7iScalarINS_7iVectorINS2_INS_9Grid_simdISt7complexIdENS_12Optimization3vecIdEEEELi3EEELi4EEEEEEaSINS_9BinaryMulESD_NS_22LatticeUnaryExpressionINS_8UnaryExpENS_23LatticeBinaryExpressionISF_S5_NS0_INS1_INS1_INS1_IS9_EEEEEEEEEEEEEERSD_RKNSI_IT_T0_T1_EE	00000000000003d2 _ZN4Grid7LatticeINS_7iScalarINS_7iVectorINS2_INS_9Grid_simdISt7complexIdENS_12Optimization3vecIdEEEELi3EEELi4EEEEEEaSINS_9BinaryMulESD_NS_22LatticeUnaryExpressionINS_8UnaryExpENS_23LatticeBinaryExpressionISF_S5_NS0_INS1_INS1_INS1_IS9_EEEEEEEEEEEEEERSD_RKNSI_IT_T0_T1_EE
0000000000000000  w    F .text._ZN4Grid16alignedAllocatorINS_7iScalarINS1_INS1_INS_9Grid_simdISt7complexIdENS_12Optimization3vecIdEEEEEEEEEEE10deallocateEPSB_m	000000000000100f _ZN4Grid16alignedAllocatorINS_7iScalarINS1_INS1_INS_9Grid_simdISt7complexIdENS_12Optimization3vecIdEEEEEEEEEEE10deallocateEPSB_m
0000000000000000         *UND*	0000000000000000 _ZSt17__throw_bad_allocv
0000000000000000  w    F .text._ZN4Grid7LatticeINS_7iScalarINS1_INS1_INS_9Grid_simdISt7complexIdENS_12Optimization3vecIdEEEEEEEEEEED2Ev	0000000000000037 _ZN4Grid7LatticeINS_7iScalarINS1_INS1_INS_9Grid_simdISt7complexIdENS_12Optimization3vecIdEEEEEEEEEEED2Ev
0000000000000000  w    F .text._ZN4Grid15FermionOperatorINS_10WilsonImplINS_9Grid_simdISt7complexIdENS_12Optimization3vecIdEEEENS_14FundamentalRepILi3EEENS_9CoeffRealEEEE14FreePropagatorERKNS_7LatticeINS_7iScalarINS_7iVectorINSG_IS8_Li3EEELi4EEEEEEERSK_d	0000000000000222 _ZN4Grid15FermionOperatorINS_10WilsonImplINS_9Grid_simdISt7complexIdENS_12Optimization3vecIdEEEENS_14FundamentalRepILi3EEENS_9CoeffRealEEEE14FreePropagatorERKNS_7LatticeINS_7iScalarINS_7iVectorINSG_IS8_Li3EEELi4EEEEEEERSK_d
0000000000000000  w    F .text._ZN4Grid13WilsonFermionINS_10WilsonImplINS_9Grid_simdISt7complexIdENS_12Optimization3vecIdEEEENS_14FundamentalRepILi3EEENS_9CoeffRealEEEE19SeqConservedCurrentERNS_7LatticeINS_7iScalarINS_7iMatrixINSG_IS8_Li3EEELi4EEEEEEESL_SL_NS_7CurrentEjjjRNSE_INSF_INSF_INSF_IS8_EEEEEEEE	0000000000000508 _ZN4Grid13WilsonFermionINS_10WilsonImplINS_9Grid_simdISt7complexIdENS_12Optimization3vecIdEEEENS_14FundamentalRepILi3EEENS_9CoeffRealEEEE19SeqConservedCurrentERNS_7LatticeINS_7iScalarINS_7iMatrixINSG_IS8_Li3EEELi4EEEEEEESL_SL_NS_7CurrentEjjjRNSE_INSF_INSF_INSF_IS8_EEEEEEEE
0000000000000000         *UND*	0000000000000000 _ZN4Grid15GridDefaultLattEv
0000000000000000  w    F .text._ZN4Grid7LatticeINS_7iScalarINS_7iMatrixINS2_INS_9Grid_simdISt7complexIdENS_12Optimization3vecIdEEEELi3EEELi4EEEEEEC2EPNS_8GridBaseENS_8ViewModeE	000000000000021c _ZN4Grid7LatticeINS_7iScalarINS_7iMatrixINS2_INS_9Grid_simdISt7complexIdENS_12Optimization3vecIdEEEELi3EEELi4EEEEEEC2EPNS_8GridBaseENS_8ViewModeE
0000000000000000  w    F .text._ZN4Grid7LatticeINS_7iScalarINS_7iMatrixINS2_INS_9Grid_simdISt7complexIdENS_12Optimization3vecIdEEEELi3EEELi4EEEEEEaSINS_4ZeroEEERSD_RKT_	00000000000000e3 _ZN4Grid7LatticeINS_7iScalarINS_7iMatrixINS2_INS_9Grid_simdISt7complexIdENS_12Optimization3vecIdEEEELi3EEELi4EEEEEEaSINS_4ZeroEEERSD_RKT_
0000000000000000  w    F .text._ZN4Grid7LatticeINS_7iScalarINS1_INS1_INS_9Grid_simdIjNS_12Optimization3vecIjEEEEEEEEEEEC2EPNS_8GridBaseENS_8ViewModeE	000000000000021c _ZN4Grid7LatticeINS_7iScalarINS1_INS1_INS_9Grid_simdIjNS_12Optimization3vecIjEEEEEEEEEEEC2EPNS_8GridBaseENS_8ViewModeE
0000000000000000  w    F .text._ZN4Grid17LatticeCoordinateINS_7iScalarINS1_INS1_INS_9Grid_simdIjNS_12Optimization3vecIjEEEEEEEEEEEEvRNS_7LatticeIT_EEi	0000000000000320 _ZN4Grid17LatticeCoordinateINS_7iScalarINS1_INS1_INS_9Grid_simdIjNS_12Optimization3vecIjEEEEEEEEEEEEvRNS_7LatticeIT_EEi
0000000000000000  w    F .text._ZN4Grid6CshiftINS_7iScalarINS_7iMatrixINS2_INS_9Grid_simdISt7complexIdENS_12Optimization3vecIdEEEELi3EEELi4EEEEEEENS_7LatticeIT_EERKSF_ii	000000000000018c _ZN4Grid6CshiftINS_7iScalarINS_7iMatrixINS2_INS_9Grid_simdISt7complexIdENS_12Optimization3vecIdEEEELi3EEELi4EEEEEEENS_7LatticeIT_EERKSF_ii
0000000000000000  w    F .text._ZN4Grid7LatticeINS_7iScalarINS_7iMatrixINS2_INS_9Grid_simdISt7complexIdENS_12Optimization3vecIdEEEELi3EEELi4EEEEEEaSEOSD_	0000000000000168 _ZN4Grid7LatticeINS_7iScalarINS_7iMatrixINS2_INS_9Grid_simdISt7complexIdENS_12Optimization3vecIdEEEELi3EEELi4EEEEEEaSEOSD_
0000000000000000  w    F .text._ZN4Grid16alignedAllocatorINS_7iScalarINS_7iMatrixINS2_INS_9Grid_simdISt7complexIdENS_12Optimization3vecIdEEEELi3EEELi4EEEEEE10deallocateEPSC_m	000000000000100e _ZN4Grid16alignedAllocatorINS_7iScalarINS_7iMatrixINS2_INS_9Grid_simdISt7complexIdENS_12Optimization3vecIdEEEELi3EEELi4EEEEEE10deallocateEPSC_m
0000000000000000  w    F .text._ZN4Grid10WilsonImplINS_9Grid_simdISt7complexIdENS_12Optimization3vecIdEEEENS_14FundamentalRepILi3EEENS_9CoeffRealEE13multLinkFieldINS_7LatticeINS_7iScalarINS_7iMatrixINSF_IS7_Li3EEELi4EEEEEEEEEvRT_RKNSD_INS_7iVectorINSE_ISG_EELi8EEEEERKSK_i	0000000000000277 _ZN4Grid10WilsonImplINS_9Grid_simdISt7complexIdENS_12Optimization3vecIdEEEENS_14FundamentalRepILi3EEENS_9CoeffRealEE13multLinkFieldINS_7LatticeINS_7iScalarINS_7iMatrixINSF_IS7_Li3EEELi4EEEEEEEEEvRT_RKNSD_INS_7iVectorINSE_ISG_EELi8EEEEERKSK_i
0000000000000000  w    F .text._ZN4Grid11LatticeViewINS_7iScalarINS_7iMatrixINS2_INS_9Grid_simdISt7complexIdENS_12Optimization3vecIdEEEELi3EEELi4EEEEEEC2ERKNS_18LatticeAcceleratorISC_EE	00000000000000ab _ZN4Grid11LatticeViewINS_7iScalarINS_7iMatrixINS2_INS_9Grid_simdISt7complexIdENS_12Optimization3vecIdEEEELi3EEELi4EEEEEEC2ERKNS_18LatticeAcceleratorISC_EE
0000000000000000  w    F .text._ZN4Grid7LatticeINS_7iScalarINS_7iMatrixINS2_INS_9Grid_simdISt7complexIdENS_12Optimization3vecIdEEEELi3EEELi4EEEEEEaSINS_9BinarySubENS_23LatticeBinaryExpressionINS_9BinaryMulESD_NS0_INS1_INS1_INS1_IS9_EEEEEEEEEENSG_ISH_NSG_ISH_NS_5GammaESD_EESL_EEEERSD_RKNSG_IT_T0_T1_EE	0000000000000592 _ZN4Grid7LatticeINS_7iScalarINS_7iMatrixINS2_INS_9Grid_simdISt7complexIdENS_12Optimization3vecIdEEEELi3EEELi4EEEEEEaSINS_9BinarySubENS_23LatticeBinaryExpressionINS_9BinaryMulESD_NS0_INS1_INS1_INS1_IS9_EEEEEEEEEENSG_ISH_NSG_ISH_NS_5GammaESD_EESL_EEEERSD_RKNSG_IT_T0_T1_EE
0000000000000000  w    F .text._ZN4Grid12LSComparisonINS_3vgeINS_7iScalarINS2_INS2_INS_9Grid_simdIjNS_12Optimization3vecIjEEEEEEEEEEjEESA_jEENS_7LatticeIS8_EET_RKNSC_IT0_EERKT1_	0000000000000132 _ZN4Grid12LSComparisonINS_3vgeINS_7iScalarINS2_INS2_INS_9Grid_simdIjNS_12Optimization3vecIjEEEEEEEEEEjEESA_jEENS_7LatticeIS8_EET_RKNSC_IT0_EERKT1_
0000000000000000  w    F .text._ZN4Grid11LatticeViewINS_7iScalarINS_9Grid_simdIjNS_12Optimization3vecIjEEEEEEEC2ERKNS_18LatticeAcceleratorIS7_EE	00000000000000ab _ZN4Grid11LatticeViewINS_7iScalarINS_9Grid_simdIjNS_12Optimization3vecIjEEEEEEEC2ERKNS_18LatticeAcceleratorIS7_EE
0000000000000000  w    F .text._ZN4Grid7LatticeINS_7iScalarINS_7iMatrixINS2_INS_9Grid_simdISt7complexIdENS_12Optimization3vecIdEEEELi3EEELi4EEEEEEaSINS_12TrinaryWhereENS0_INS1_INS3_IjNS7_IjEEEEEEEESD_SD_EERSD_RKNS_24LatticeTrinaryExpressionIT_T0_T1_T2_EE	00000000000004ab _ZN4Grid7LatticeINS_7iScalarINS_7iMatrixINS2_INS_9Grid_simdISt7complexIdENS_12Optimization3vecIdEEEELi3EEELi4EEEEEEaSINS_12TrinaryWhereENS0_INS1_INS3_IjNS7_IjEEEEEEEESD_SD_EERSD_RKNS_24LatticeTrinaryExpressionIT_T0_T1_T2_EE
0000000000000000  w    F .text._ZN4Grid16alignedAllocatorINS_7iScalarINS_9Grid_simdIjNS_12Optimization3vecIjEEEEEEE10deallocateEPS7_m	000000000000100f _ZN4Grid16alignedAllocatorINS_7iScalarINS_9Grid_simdIjNS_12Optimization3vecIjEEEEEEE10deallocateEPS7_m
0000000000000000  w    F .text._ZN4Grid16alignedAllocatorINS_7iScalarINS1_INS1_INS_9Grid_simdIjNS_12Optimization3vecIjEEEEEEEEEEE10deallocateEPS9_m	000000000000100f _ZN4Grid16alignedAllocatorINS_7iScalarINS1_INS1_INS_9Grid_simdIjNS_12Optimization3vecIjEEEEEEEEEEE10deallocateEPS9_m
0000000000000000         *UND*	0000000000000000 _ZSt4cout
0000000000000000         *UND*	0000000000000000 _ZN4Grid12GridLogErrorE
0000000000000000  w    F .text._ZN4GridlsERSoRNS_6LoggerE	0000000000000348 _ZN4GridlsERSoRNS_6LoggerE
0000000000000000         *UND*	0000000000000000 _ZStlsISt11char_traitsIcEERSt13basic_ostreamIcT_ES5_PKc
0000000000000000         *UND*	0000000000000000 _ZSt4endlIcSt11char_traitsIcEERSt13basic_ostreamIT_T0_ES6_
0000000000000000         *UND*	0000000000000000 exit
0000000000000000  w    F .text._ZN4Grid7LatticeINS_7iScalarINS_7iMatrixINS2_INS_9Grid_simdISt7complexIdENS_12Optimization3vecIdEEEELi3EEELi4EEEEEED2Ev	0000000000000037 _ZN4Grid7LatticeINS_7iScalarINS_7iMatrixINS2_INS_9Grid_simdISt7complexIdENS_12Optimization3vecIdEEEELi3EEELi4EEEEEED2Ev
0000000000000000  w    F .text._ZN4Grid7LatticeINS_7iScalarINS_9Grid_simdIjNS_12Optimization3vecIjEEEEEEED2Ev	0000000000000037 _ZN4Grid7LatticeINS_7iScalarINS_9Grid_simdIjNS_12Optimization3vecIjEEEEEEED2Ev
0000000000000000  w    F .text._ZN4Grid7LatticeINS_7iScalarINS1_INS1_INS_9Grid_simdIjNS_12Optimization3vecIjEEEEEEEEEEED2Ev	0000000000000037 _ZN4Grid7LatticeINS_7iScalarINS1_INS1_INS_9Grid_simdIjNS_12Optimization3vecIjEEEEEEEEEEED2Ev
0000000000000000  w    F .text._ZN4Grid15FermionOperatorINS_10WilsonImplINS_9Grid_simdISt7complexIdENS_12Optimization3vecIdEEEENS_14FundamentalRepILi3EEENS_9CoeffRealEEEE11ContractJ5qERNS_7LatticeINS_7iScalarINS_7iVectorINSG_IS8_Li3EEELi4EEEEEEERNSE_INSF_INSF_INSF_IS8_EEEEEEEE	000000000000000e _ZN4Grid15FermionOperatorINS_10WilsonImplINS_9Grid_simdISt7complexIdENS_12Optimization3vecIdEEEENS_14FundamentalRepILi3EEENS_9CoeffRealEEEE11ContractJ5qERNS_7LatticeINS_7iScalarINS_7iVectorINSG_IS8_Li3EEELi4EEEEEEERNSE_INSF_INSF_INSF_IS8_EEEEEEEE
0000000000000000  w    F .text._ZN4Grid15FermionOperatorINS_10WilsonImplINS_9Grid_simdISt7complexIdENS_12Optimization3vecIdEEEENS_14FundamentalRepILi3EEENS_9CoeffRealEEEE11ContractJ5qERNS_7LatticeINS_7iScalarINS_7iMatrixINSG_IS8_Li3EEELi4EEEEEEERNSE_INSF_INSF_INSF_IS8_EEEEEEEE	000000000000000e _ZN4Grid15FermionOperatorINS_10WilsonImplINS_9Grid_simdISt7complexIdENS_12Optimization3vecIdEEEENS_14FundamentalRepILi3EEENS_9CoeffRealEEEE11ContractJ5qERNS_7LatticeINS_7iScalarINS_7iMatrixINSG_IS8_Li3EEELi4EEEEEEERNSE_INSF_INSF_INSF_IS8_EEEEEEEE
0000000000000000  w    F .text._ZN4Grid15FermionOperatorINS_10WilsonImplINS_9Grid_simdISt7complexIdENS_12Optimization3vecIdEEEENS_14FundamentalRepILi3EEENS_9CoeffRealEEEE6DminusERKNS_7LatticeINS_7iScalarINS_7iVectorINSG_IS8_Li3EEELi4EEEEEEERSK_	0000000000000008 _ZN4Grid15FermionOperatorINS_10WilsonImplINS_9Grid_simdISt7complexIdENS_12Optimization3vecIdEEEENS_14FundamentalRepILi3EEENS_9CoeffRealEEEE6DminusERKNS_7LatticeINS_7iScalarINS_7iVectorINSG_IS8_Li3EEELi4EEEEEEERSK_
0000000000000000  w    F .text._ZN4Grid7LatticeINS_7iScalarINS_7iVectorINS2_INS_9Grid_simdISt7complexIdENS_12Optimization3vecIdEEEELi3EEELi4EEEEEEaSERKSD_	0000000000000266 _ZN4Grid7LatticeINS_7iScalarINS_7iVectorINS2_INS_9Grid_simdISt7complexIdENS_12Optimization3vecIdEEEELi3EEELi4EEEEEEaSERKSD_
0000000000000000  w    F .text._ZN4Grid15FermionOperatorINS_10WilsonImplINS_9Grid_simdISt7complexIdENS_12Optimization3vecIdEEEENS_14FundamentalRepILi3EEENS_9CoeffRealEEEE9DminusDagERKNS_7LatticeINS_7iScalarINS_7iVectorINSG_IS8_Li3EEELi4EEEEEEERSK_	0000000000000008 _ZN4Grid15FermionOperatorINS_10WilsonImplINS_9Grid_simdISt7complexIdENS_12Optimization3vecIdEEEENS_14FundamentalRepILi3EEENS_9CoeffRealEEEE9DminusDagERKNS_7LatticeINS_7iScalarINS_7iVectorINSG_IS8_Li3EEELi4EEEEEEERSK_
0000000000000000  w    F .text._ZN4Grid15FermionOperatorINS_10WilsonImplINS_9Grid_simdISt7complexIdENS_12Optimization3vecIdEEEENS_14FundamentalRepILi3EEENS_9CoeffRealEEEE27ImportPhysicalFermionSourceERKNS_7LatticeINS_7iScalarINS_7iVectorINSG_IS8_Li3EEELi4EEEEEEERSK_	0000000000000008 _ZN4Grid15FermionOperatorINS_10WilsonImplINS_9Grid_simdISt7complexIdENS_12Optimization3vecIdEEEENS_14FundamentalRepILi3EEENS_9CoeffRealEEEE27ImportPhysicalFermionSourceERKNS_7LatticeINS_7iScalarINS_7iVectorINSG_IS8_Li3EEELi4EEEEEEERSK_
0000000000000000  w    F .text._ZN4Grid15FermionOperatorINS_10WilsonImplINS_9Grid_simdISt7complexIdENS_12Optimization3vecIdEEEENS_14FundamentalRepILi3EEENS_9CoeffRealEEEE23ImportUnphysicalFermionERKNS_7LatticeINS_7iScalarINS_7iVectorINSG_IS8_Li3EEELi4EEEEEEERSK_	0000000000000008 _ZN4Grid15FermionOperatorINS_10WilsonImplINS_9Grid_simdISt7complexIdENS_12Optimization3vecIdEEEENS_14FundamentalRepILi3EEENS_9CoeffRealEEEE23ImportUnphysicalFermionERKNS_7LatticeINS_7iScalarINS_7iVectorINSG_IS8_Li3EEELi4EEEEEEERSK_
0000000000000000  w    F .text._ZN4Grid15FermionOperatorINS_10WilsonImplINS_9Grid_simdISt7complexIdENS_12Optimization3vecIdEEEENS_14FundamentalRepILi3EEENS_9CoeffRealEEEE29ExportPhysicalFermionSolutionERKNS_7LatticeINS_7iScalarINS_7iVectorINSG_IS8_Li3EEELi4EEEEEEERSK_	0000000000000008 _ZN4Grid15FermionOperatorINS_10WilsonImplINS_9Grid_simdISt7complexIdENS_12Optimization3vecIdEEEENS_14FundamentalRepILi3EEENS_9CoeffRealEEEE29ExportPhysicalFermionSolutionERKNS_7LatticeINS_7iScalarINS_7iVectorINSG_IS8_Li3EEELi4EEEEEEERSK_
0000000000000000  w    F .text._ZN4Grid15FermionOperatorINS_10WilsonImplINS_9Grid_simdISt7complexIdENS_12Optimization3vecIdEEEENS_14FundamentalRepILi3EEENS_9CoeffRealEEEE27ExportPhysicalFermionSourceERKNS_7LatticeINS_7iScalarINS_7iVectorINSG_IS8_Li3EEELi4EEEEEEERSK_	0000000000000008 _ZN4Grid15FermionOperatorINS_10WilsonImplINS_9Grid_simdISt7complexIdENS_12Optimization3vecIdEEEENS_14FundamentalRepILi3EEENS_9CoeffRealEEEE27ExportPhysicalFermionSourceERKNS_7LatticeINS_7iScalarINS_7iVectorINSG_IS8_Li3EEELi4EEEEEEERSK_
0000000000000000  w    F .text._ZN4Grid6Logger10backgroundB5cxx11Ev	00000000000000e1 _ZN4Grid6Logger10backgroundB5cxx11Ev
0000000000000000         *UND*	0000000000000000 _ZSt16__ostream_insertIcSt11char_traitsIcEERSt13basic_ostreamIT_T0_ES6_PKS3_l
0000000000000000         *UND*	0000000000000000 _ZN4Grid6Logger9timestampE
0000000000000000         *UND*	0000000000000000 _ZNSt6chrono3_V212system_clock3nowEv
0000000000000000  w    F .text._ZN4Grid6Logger8evidenceB5cxx11Ev	00000000000000e1 _ZN4Grid6Logger8evidenceB5cxx11Ev
0000000000000000  w    F .text._ZN4GridlsERSoRKNSt6chrono8durationIlSt5ratioILl1ELl1000000EEEE	00000000000001b5 _ZN4GridlsERSoRKNSt6chrono8durationIlSt5ratioILl1ELl1000000EEEE
0000000000000000         *UND*	0000000000000000 _ZN4Grid6Logger7devnullE
0000000000000000         *UND*	0000000000000000 _ZNSolsEi
0000000000000000         *UND*	0000000000000000 _ZNKSt5ctypeIcE13_M_widen_initEv
0000000000000000         *UND*	0000000000000000 _ZNSo3putEc
0000000000000000         *UND*	0000000000000000 _ZNSo5flushEv
0000000000000000  w    F .text._ZN4Grid7LatticeINS_7iScalarINS_7iMatrixINS2_INS_9Grid_simdISt7complexIdENS_12Optimization3vecIdEEEELi3EEELi4EEEEEE6resizeEm	00000000000000e3 _ZN4Grid7LatticeINS_7iScalarINS_7iMatrixINS2_INS_9Grid_simdISt7complexIdENS_12Optimization3vecIdEEEELi3EEELi4EEEEEE6resizeEm
0000000000000000  w    F .text._ZN4Grid7LatticeINS_7iScalarINS_7iMatrixINS2_INS_9Grid_simdISt7complexIdENS_12Optimization3vecIdEEEELi3EEELi4EEEEEE11SetViewModeENS_8ViewModeE	00000000000001d8 _ZN4Grid7LatticeINS_7iScalarINS_7iMatrixINS2_INS_9Grid_simdISt7complexIdENS_12Optimization3vecIdEEEELi3EEELi4EEEEEE11SetViewModeENS_8ViewModeE
0000000000000000         *UND*	0000000000000000 _ZSt16__throw_bad_castv
0000000000000000  w    F .text._ZNK4Grid7LatticeINS_7iScalarINS_7iMatrixINS2_INS_9Grid_simdISt7complexIdENS_12Optimization3vecIdEEEELi3EEELi4EEEEEE4ViewENS_8ViewModeE	00000000000000b6 _ZNK4Grid7LatticeINS_7iScalarINS_7iMatrixINS2_INS_9Grid_simdISt7complexIdENS_12Optimization3vecIdEEEELi3EEELi4EEEEEE4ViewENS_8ViewModeE
0000000000000000         *UND*	0000000000000000 memset
0000000000000000         *UND*	0000000000000000 _ZN4Grid13MemoryManager9ViewCloseEPvNS_8ViewModeE
0000000000000000  w    F .text._ZN4Grid7LatticeINS_7iScalarINS1_INS1_INS_9Grid_simdIjNS_12Optimization3vecIjEEEEEEEEEEE6resizeEm	00000000000000e3 _ZN4Grid7LatticeINS_7iScalarINS1_INS1_INS_9Grid_simdIjNS_12Optimization3vecIjEEEEEEEEEEE6resizeEm
0000000000000000  w    F .text._ZN4Grid7LatticeINS_7iScalarINS1_INS1_INS_9Grid_simdIjNS_12Optimization3vecIjEEEEEEEEEEE11SetViewModeENS_8ViewModeE	00000000000001d8 _ZN4Grid7LatticeINS_7iScalarINS1_INS1_INS_9Grid_simdIjNS_12Optimization3vecIjEEEEEEEEEEE11SetViewModeENS_8ViewModeE
0000000000000000  w    F .text._ZNK4Grid7LatticeINS_7iScalarINS1_INS1_INS_9Grid_simdIjNS_12Optimization3vecIjEEEEEEEEEEE4ViewENS_8ViewModeE	00000000000000b6 _ZNK4Grid7LatticeINS_7iScalarINS1_INS1_INS_9Grid_simdIjNS_12Optimization3vecIjEEEEEEEEEEE4ViewENS_8ViewModeE
0000000000000000         *UND*	0000000000000000 _ZN4Grid21CartesianCommunicator8ThisRankEv
0000000000000000  w    F .text._ZN4Grid8GridBase21RankIndexToGlobalCoorEiiiRNS_17AcceleratorVectorIiLi8EEE	000000000000027d _ZN4Grid8GridBase21RankIndexToGlobalCoorEiiiRNS_17AcceleratorVectorIiLi8EEE
0000000000000000  w    F .text._ZN4Grid10ViewCloserINS_11LatticeViewINS_7iScalarINS2_INS2_INS_9Grid_simdIjNS_12Optimization3vecIjEEEEEEEEEEEEED2Ev	000000000000001a _ZN4Grid10ViewCloserINS_11LatticeViewINS_7iScalarINS2_INS2_INS_9Grid_simdIjNS_12Optimization3vecIjEEEEEEEEEEEEED2Ev
0000000000000000  w    F .text._ZN4Grid12Cshift_localINS_7iScalarINS_7iMatrixINS2_INS_9Grid_simdISt7complexIdENS_12Optimization3vecIdEEEELi3EEELi4EEEEEEEvRNS_7LatticeIT_EERKSF_ii	00000000000001b4 _ZN4Grid12Cshift_localINS_7iScalarINS_7iMatrixINS2_INS_9Grid_simdISt7complexIdENS_12Optimization3vecIdEEEELi3EEELi4EEEEEEEvRNS_7LatticeIT_EERKSF_ii
0000000000000000  w    F .text._ZNK4Grid7LatticeINS_7iVectorINS_7iScalarINS_7iMatrixINS_9Grid_simdISt7complexIdENS_12Optimization3vecIdEEEELi3EEEEELi8EEEE4ViewENS_8ViewModeE	00000000000000b6 _ZNK4Grid7LatticeINS_7iVectorINS_7iScalarINS_7iMatrixINS_9Grid_simdISt7complexIdENS_12Optimization3vecIdEEEELi3EEEEELi8EEEE4ViewENS_8ViewModeE
0000000000000000         *UND*	0000000000000000 _ZN4Grid18acceleratorThreadsEv
0000000000000150  w    O .rodata	0000000000000001 .__omp_offloading_73_1e118af7__ZN4Grid10WilsonImplINS_9Grid_simdISt7complexIdENS_12Optimization3vecIdEEEENS_14FundamentalRepILi3EEENS_9CoeffRealEE13multLinkFieldINS_7LatticeINS_7iScalarINS_7iMatrixINSF_IS7_Li3EEELi4EEEEEEEEEvRT_RKNSD_INS_7iVectorINSE_ISG_EELi8EEEEERKSK_i_l116.region_id
0000000000000000         *UND*	0000000000000000 __tgt_target_kernel
0000000000000000         *UND*	0000000000000000 __kmpc_global_thread_num
0000000000000000         *UND*	0000000000000000 __kmpc_push_num_teams
0000000000000000         *UND*	0000000000000000 __kmpc_fork_teams
0000000000000000  w    F .text._ZN4Grid10ViewCloserINS_11LatticeViewINS_7iVectorINS_7iScalarINS_7iMatrixINS_9Grid_simdISt7complexIdENS_12Optimization3vecIdEEEELi3EEEEELi8EEEEEED2Ev	000000000000001a _ZN4Grid10ViewCloserINS_11LatticeViewINS_7iVectorINS_7iScalarINS_7iMatrixINS_9Grid_simdISt7complexIdENS_12Optimization3vecIdEEEELi3EEEEELi8EEEEEED2Ev
0000000000000000  w    F .text._ZN4Grid10ViewCloserINS_11LatticeViewINS_7iScalarINS_7iMatrixINS3_INS_9Grid_simdISt7complexIdENS_12Optimization3vecIdEEEELi3EEELi4EEEEEEEED2Ev	000000000000001a _ZN4Grid10ViewCloserINS_11LatticeViewINS_7iScalarINS_7iMatrixINS3_INS_9Grid_simdISt7complexIdENS_12Optimization3vecIdEEEELi3EEELi4EEEEEEEED2Ev
0000000000000000  w    F .text._ZN4Grid16CBFromExpressionINS_11LatticeViewINS_7iScalarINS_7iMatrixINS3_INS_9Grid_simdISt7complexIdENS_12Optimization3vecIdEEEELi3EEELi4EEEEEEELPSE_0EEEvRiRKT_	0000000000000164 _ZN4Grid16CBFromExpressionINS_11LatticeViewINS_7iScalarINS_7iMatrixINS3_INS_9Grid_simdISt7complexIdENS_12Optimization3vecIdEEEELi3EEELi4EEEEEEELPSE_0EEEvRiRKT_
0000000000000000  w    F .text._ZN4Grid16CBFromExpressionINS_11LatticeViewINS_7iScalarINS2_INS2_INS_9Grid_simdISt7complexIdENS_12Optimization3vecIdEEEEEEEEEEEELPSD_0EEEvRiRKT_	0000000000000164 _ZN4Grid16CBFromExpressionINS_11LatticeViewINS_7iScalarINS2_INS2_INS_9Grid_simdISt7complexIdENS_12Optimization3vecIdEEEEEEEEEEEELPSD_0EEEvRiRKT_
0000000000000000         *UND*	0000000000000000 memcpy
0000000000000000  w    F .text._ZN4Grid11LatticeViewINS_7iScalarINS_7iMatrixINS2_INS_9Grid_simdISt7complexIdENS_12Optimization3vecIdEEEELi3EEELi4EEEEEE8ViewOpenENS_8ViewModeE	0000000000000225 _ZN4Grid11LatticeViewINS_7iScalarINS_7iMatrixINS2_INS_9Grid_simdISt7complexIdENS_12Optimization3vecIdEEEELi3EEELi4EEEEEE8ViewOpenENS_8ViewModeE
0000000000000000  w    F .text._ZN4Grid11LatticeViewINS_7iScalarINS1_INS1_INS_9Grid_simdISt7complexIdENS_12Optimization3vecIdEEEEEEEEEEE8ViewOpenENS_8ViewModeE	000000000000021d _ZN4Grid11LatticeViewINS_7iScalarINS1_INS1_INS_9Grid_simdISt7complexIdENS_12Optimization3vecIdEEEEEEEEEEE8ViewOpenENS_8ViewModeE
00000000000001c0  w    O .rodata	0000000000000001 .__omp_offloading_73_1e118ab9__ZN4Grid7LatticeINS_7iScalarINS_7iMatrixINS2_INS_9Grid_simdISt7complexIdENS_12Optimization3vecIdEEEELi3EEELi4EEEEEEaSINS_9BinarySubENS_23LatticeBinaryExpressionINS_9BinaryMulESD_NS0_INS1_INS1_INS1_IS9_EEEEEEEEEENSG_ISH_NSG_ISH_NS_5GammaESD_EESL_EEEERSD_RKNSG_IT_T0_T1_EE_l166.region_id
0000000000000000  w    F .text._ZN4Grid16CBFromExpressionINS_11LatticeViewINS_7iScalarINS_9Grid_simdIjNS_12Optimization3vecIjEEEEEEEELPS9_0EEEvRiRKT_	0000000000000164 _ZN4Grid16CBFromExpressionINS_11LatticeViewINS_7iScalarINS_9Grid_simdIjNS_12Optimization3vecIjEEEEEEEELPS9_0EEEvRiRKT_
0000000000000000  w    F .text._ZN4Grid11LatticeViewINS_7iScalarINS_9Grid_simdIjNS_12Optimization3vecIjEEEEEEE8ViewOpenENS_8ViewModeE	000000000000021d _ZN4Grid11LatticeViewINS_7iScalarINS_9Grid_simdIjNS_12Optimization3vecIjEEEEEEE8ViewOpenENS_8ViewModeE
00000000000001e8  w    O .rodata	0000000000000001 .__omp_offloading_73_1e118ab9__ZN4Grid7LatticeINS_7iScalarINS_7iMatrixINS2_INS_9Grid_simdISt7complexIdENS_12Optimization3vecIdEEEELi3EEELi4EEEEEEaSINS_12TrinaryWhereENS0_INS1_INS3_IjNS7_IjEEEEEEEESD_SD_EERSD_RKNS_24LatticeTrinaryExpressionIT_T0_T1_T2_EE_l190.region_id
0000000000000000  w    F .text._ZNSt3mapINSt7__cxx1112basic_stringIcSt11char_traitsIcESaIcEEES5_St4lessIS5_ESaISt4pairIKS5_S5_EEEixEOS5_	000000000000013d _ZNSt3mapINSt7__cxx1112basic_stringIcSt11char_traitsIcESaIcEEES5_St4lessIS5_ESaISt4pairIKS5_S5_EEEixEOS5_
0000000000000000         *UND*	0000000000000000 _ZNSt7__cxx1112basic_stringIcSt11char_traitsIcESaIcEE9_M_createERmm
0000000000000000         *UND*	0000000000000000 _ZNSo9_M_insertIlEERSoT_
0000000000000000         *UND*	0000000000000000 __cxa_begin_catch
0000000000000000         *UND*	0000000000000000 _ZSt9terminatev
0000000000000000         *UND*	0000000000000000 memcmp
0000000000000000  w    F .text._ZNSt8_Rb_treeINSt7__cxx1112basic_stringIcSt11char_traitsIcESaIcEEESt4pairIKS5_S5_ESt10_Select1stIS8_ESt4lessIS5_ESaIS8_EE22_M_emplace_hint_uniqueIJRKSt21piecewise_construct_tSt5tupleIJOS5_EESJ_IJEEEEESt17_Rb_tree_iteratorIS8_ESt23_Rb_tree_const_iteratorIS8_EDpOT_	000000000000017e _ZNSt8_Rb_treeINSt7__cxx1112basic_stringIcSt11char_traitsIcESaIcEEESt4pairIKS5_S5_ESt10_Select1stIS8_ESt4lessIS5_ESaIS8_EE22_M_emplace_hint_uniqueIJRKSt21piecewise_construct_tSt5tupleIJOS5_EESJ_IJEEEEESt17_Rb_tree_iteratorIS8_ESt23_Rb_tree_const_iteratorIS8_EDpOT_
0000000000000000  w    F .text._ZNSt8_Rb_treeINSt7__cxx1112basic_stringIcSt11char_traitsIcESaIcEEESt4pairIKS5_S5_ESt10_Select1stIS8_ESt4lessIS5_ESaIS8_EE29_M_get_insert_hint_unique_posESt23_Rb_tree_const_iteratorIS8_ERS7_	00000000000002b4 _ZNSt8_Rb_treeINSt7__cxx1112basic_stringIcSt11char_traitsIcESaIcEEESt4pairIKS5_S5_ESt10_Select1stIS8_ESt4lessIS5_ESaIS8_EE29_M_get_insert_hint_unique_posESt23_Rb_tree_const_iteratorIS8_ERS7_
0000000000000000         *UND*	0000000000000000 _ZSt29_Rb_tree_insert_and_rebalancebPSt18_Rb_tree_node_baseS0_RS_
0000000000000000  w    F .text._ZNSt8_Rb_treeINSt7__cxx1112basic_stringIcSt11char_traitsIcESaIcEEESt4pairIKS5_S5_ESt10_Select1stIS8_ESt4lessIS5_ESaIS8_EE12_M_drop_nodeEPSt13_Rb_tree_nodeIS8_E	0000000000000031 _ZNSt8_Rb_treeINSt7__cxx1112basic_stringIcSt11char_traitsIcESaIcEEESt4pairIKS5_S5_ESt10_Select1stIS8_ESt4lessIS5_ESaIS8_EE12_M_drop_nodeEPSt13_Rb_tree_nodeIS8_E
0000000000000000         *UND*	0000000000000000 __cxa_rethrow
0000000000000000         *UND*	0000000000000000 __cxa_end_catch
0000000000000000         *UND*	0000000000000000 _ZSt18_Rb_tree_decrementPSt18_Rb_tree_node_base
0000000000000000         *UND*	0000000000000000 _ZSt18_Rb_tree_incrementPSt18_Rb_tree_node_base
0000000000000000  w    F .text._ZNSt8_Rb_treeINSt7__cxx1112basic_stringIcSt11char_traitsIcESaIcEEESt4pairIKS5_S5_ESt10_Select1stIS8_ESt4lessIS5_ESaIS8_EE24_M_get_insert_unique_posERS7_	000000000000012f _ZNSt8_Rb_treeINSt7__cxx1112basic_stringIcSt11char_traitsIcESaIcEEESt4pairIKS5_S5_ESt10_Select1stIS8_ESt4lessIS5_ESaIS8_EE24_M_get_insert_unique_posERS7_
0000000000000000  w    F .text._ZN4Grid16alignedAllocatorINS_7iScalarINS_7iMatrixINS2_INS_9Grid_simdISt7complexIdENS_12Optimization3vecIdEEEELi3EEELi4EEEEEE8allocateEmPKv	000000000000103f _ZN4Grid16alignedAllocatorINS_7iScalarINS_7iMatrixINS2_INS_9Grid_simdISt7complexIdENS_12Optimization3vecIdEEEELi3EEELi4EEEEEE8allocateEmPKv
0000000000000000  w    F .text._ZN4Grid11LatticeViewINS_7iScalarINS_7iMatrixINS2_INS_9Grid_simdISt7complexIdENS_12Optimization3vecIdEEEELi3EEELi4EEEEEEC2ERKNS_18LatticeAcceleratorISC_EENS_8ViewModeE	00000000000000c5 _ZN4Grid11LatticeViewINS_7iScalarINS_7iMatrixINS2_INS_9Grid_simdISt7complexIdENS_12Optimization3vecIdEEEELi3EEELi4EEEEEEC2ERKNS_18LatticeAcceleratorISC_EENS_8ViewModeE
0000000000000000         *UND*	0000000000000000 _ZN4Grid14MemoryProfiler5statsE
0000000000000000         *UND*	0000000000000000 _ZN4Grid14MemoryProfiler5debugE
0000000000000000         *UND*	0000000000000000 _ZN4Grid12GridLogDebugE
0000000000000000         *UND*	0000000000000000 vsnprintf
0000000000000000  w    F .text._ZN9__gnu_cxx12__to_xstringINSt7__cxx1112basic_stringIcSt11char_traitsIcESaIcEEEcEET_PFiPT0_mPKS8_P13__va_list_tagEmSB_z	0000000000000104 _ZN9__gnu_cxx12__to_xstringINSt7__cxx1112basic_stringIcSt11char_traitsIcESaIcEEEcEET_PFiPT0_mPKS8_P13__va_list_tagEmSB_z
0000000000000000         *UND*	0000000000000000 _ZNSt7__cxx1112basic_stringIcSt11char_traitsIcESaIcEE9_M_appendEPKcm
0000000000000000         *UND*	0000000000000000 _ZN4Grid10sizeStringB5cxx11Em
0000000000000000         *UND*	0000000000000000 _ZNSt7__cxx1112basic_stringIcSt11char_traitsIcESaIcEE10_M_replaceEmmPKcm
0000000000000000         *UND*	0000000000000000 _ZNSo9_M_insertIPKvEERSoT_
0000000000000000         *UND*	0000000000000000 _ZN4Grid13MemoryManager11CpuAllocateEm
0000000000000000         *UND*	0000000000000000 _ZSt20__throw_length_errorPKc
0000000000000000         *UND*	0000000000000000 _ZN4Grid13MemoryManager7CpuFreeEPvm
0000000000000000         *UND*	0000000000000000 _ZNSo9_M_insertImEERSoT_
0000000000000000         *UND*	0000000000000000 _ZN4Grid13MemoryManager8ViewOpenEPvmNS_8ViewModeENS_10ViewAdviseE
0000000000000000  w    F .text._ZN4Grid16alignedAllocatorINS_7iScalarINS1_INS1_INS_9Grid_simdIjNS_12Optimization3vecIjEEEEEEEEEEE8allocateEmPKv	000000000000103e _ZN4Grid16alignedAllocatorINS_7iScalarINS1_INS1_INS_9Grid_simdIjNS_12Optimization3vecIjEEEEEEEEEEE8allocateEmPKv
0000000000000000  w    F .text._ZN4Grid11LatticeViewINS_7iScalarINS1_INS1_INS_9Grid_simdIjNS_12Optimization3vecIjEEEEEEEEEEEC2ERKNS_18LatticeAcceleratorIS9_EENS_8ViewModeE	00000000000000c5 _ZN4Grid11LatticeViewINS_7iScalarINS1_INS1_INS_9Grid_simdIjNS_12Optimization3vecIjEEEEEEEEEEEC2ERKNS_18LatticeAcceleratorIS9_EENS_8ViewModeE
0000000000000000  w    F .text._ZN4Grid11LatticeViewINS_7iScalarINS1_INS1_INS_9Grid_simdIjNS_12Optimization3vecIjEEEEEEEEEEE8ViewOpenENS_8ViewModeE	000000000000021d _ZN4Grid11LatticeViewINS_7iScalarINS1_INS1_INS_9Grid_simdIjNS_12Optimization3vecIjEEEEEEEEEEE8ViewOpenENS_8ViewModeE
0000000000000000         *UND*	0000000000000000 _ZN4Grid21CartesianCommunicator21ProcessorCoorFromRankEiRNS_17AcceleratorVectorIiLi8EEE
0000000000000000  w    F .text._ZN4Grid12Cshift_localINS_7iScalarINS_7iMatrixINS2_INS_9Grid_simdISt7complexIdENS_12Optimization3vecIdEEEELi3EEELi4EEEEEEEvRNS_7LatticeIT_EERKSF_iii	000000000000051b _ZN4Grid12Cshift_localINS_7iScalarINS_7iMatrixINS2_INS_9Grid_simdISt7complexIdENS_12Optimization3vecIdEEEELi3EEELi4EEEEEEEvRNS_7LatticeIT_EERKSF_iii
0000000000000000  w    F .text._ZN4Grid10Copy_planeINS_7iScalarINS_7iMatrixINS2_INS_9Grid_simdISt7complexIdENS_12Optimization3vecIdEEEELi3EEELi4EEEEEEEvRNS_7LatticeIT_EERKSF_iiii	000000000000059a _ZN4Grid10Copy_planeINS_7iScalarINS_7iMatrixINS2_INS_9Grid_simdISt7complexIdENS_12Optimization3vecIdEEEELi3EEELi4EEEEEEEvRNS_7LatticeIT_EERKSF_iiii
0000000000000000  w    F .text._ZN4Grid18Copy_plane_permuteINS_7iScalarINS_7iMatrixINS2_INS_9Grid_simdISt7complexIdENS_12Optimization3vecIdEEEELi3EEELi4EEEEEEEvRNS_7LatticeIT_EERKSF_iiiii	0000000000000b8a _ZN4Grid18Copy_plane_permuteINS_7iScalarINS_7iMatrixINS2_INS_9Grid_simdISt7complexIdENS_12Optimization3vecIdEEEELi3EEELi4EEEEEEEvRNS_7LatticeIT_EERKSF_iiiii
0000000000000000         *UND*	0000000000000000 _ZN4Grid12Cshift_tableE
0000000000000000  w    F .text._ZNSt6vectorISt4pairIiiEN4Grid12uvmAllocatorIS1_EEE17_M_default_appendEm	00000000000001d0 _ZNSt6vectorISt4pairIiiEN4Grid12uvmAllocatorIS1_EEE17_M_default_appendEm
0000000000000000  w    F .text._ZN4Grid12uvmAllocatorISt4pairIiiEE8allocateEmPKv	000000000000103e _ZN4Grid12uvmAllocatorISt4pairIiiEE8allocateEmPKv
0000000000000000  w    F .text._ZN4Grid12uvmAllocatorISt4pairIiiEE10deallocateEPS2_m	000000000000100f _ZN4Grid12uvmAllocatorISt4pairIiiEE10deallocateEPS2_m
0000000000000000         *UND*	0000000000000000 _ZN4Grid13MemoryManager14SharedAllocateEm
0000000000000000         *UND*	0000000000000000 _ZN4Grid13MemoryManager10SharedFreeEPvm
0000000000000000  w    F .text._ZN4Grid11LatticeViewINS_7iVectorINS_7iScalarINS_7iMatrixINS_9Grid_simdISt7complexIdENS_12Optimization3vecIdEEEELi3EEEEELi8EEEEC2ERKNS_18LatticeAcceleratorISD_EENS_8ViewModeE	00000000000000c5 _ZN4Grid11LatticeViewINS_7iVectorINS_7iScalarINS_7iMatrixINS_9Grid_simdISt7complexIdENS_12Optimization3vecIdEEEELi3EEEEELi8EEEEC2ERKNS_18LatticeAcceleratorISD_EENS_8ViewModeE
0000000000000000         *UND*	0000000000000000 __kmpc_for_static_init_8u
0000000000000000         *UND*	0000000000000000 __kmpc_fork_call
0000000000000000         *UND*	0000000000000000 __kmpc_for_static_fini
0000000000000000  w    F .text._ZN4Grid11LatticeViewINS_7iVectorINS_7iScalarINS_7iMatrixINS_9Grid_simdISt7complexIdENS_12Optimization3vecIdEEEELi3EEEEELi8EEEE8ViewOpenENS_8ViewModeE	0000000000000225 _ZN4Grid11LatticeViewINS_7iVectorINS_7iScalarINS_7iMatrixINS_9Grid_simdISt7complexIdENS_12Optimization3vecIdEEEELi3EEEEELi8EEEE8ViewOpenENS_8ViewModeE
0000000000000000  w    F .text._ZN4Grid7LatticeINS_7iScalarINS_9Grid_simdIjNS_12Optimization3vecIjEEEEEEEC2EPNS_8GridBaseENS_8ViewModeE	000000000000021c _ZN4Grid7LatticeINS_7iScalarINS_9Grid_simdIjNS_12Optimization3vecIjEEEEEEEC2EPNS_8GridBaseENS_8ViewModeE
0000000000000000  w    F .text._ZNK4Grid7LatticeINS_7iScalarINS_9Grid_simdIjNS_12Optimization3vecIjEEEEEEE4ViewENS_8ViewModeE	00000000000000b6 _ZNK4Grid7LatticeINS_7iScalarINS_9Grid_simdIjNS_12Optimization3vecIjEEEEEEE4ViewENS_8ViewModeE
0000000000000000  w    F .text._ZN4Grid7LatticeINS_7iScalarINS_9Grid_simdIjNS_12Optimization3vecIjEEEEEEE6resizeEm	00000000000000e3 _ZN4Grid7LatticeINS_7iScalarINS_9Grid_simdIjNS_12Optimization3vecIjEEEEEEE6resizeEm
0000000000000000  w    F .text._ZN4Grid7LatticeINS_7iScalarINS_9Grid_simdIjNS_12Optimization3vecIjEEEEEEE11SetViewModeENS_8ViewModeE	00000000000001d8 _ZN4Grid7LatticeINS_7iScalarINS_9Grid_simdIjNS_12Optimization3vecIjEEEEEEE11SetViewModeENS_8ViewModeE
0000000000000000  w    F .text._ZN4Grid11LatticeViewINS_7iScalarINS_9Grid_simdIjNS_12Optimization3vecIjEEEEEEEC2ERKNS_18LatticeAcceleratorIS7_EENS_8ViewModeE	00000000000000c5 _ZN4Grid11LatticeViewINS_7iScalarINS_9Grid_simdIjNS_12Optimization3vecIjEEEEEEEC2ERKNS_18LatticeAcceleratorIS7_EENS_8ViewModeE
0000000000000000  w    F .text._ZN4Grid16alignedAllocatorINS_7iScalarINS_9Grid_simdIjNS_12Optimization3vecIjEEEEEEE8allocateEmPKv	000000000000103e _ZN4Grid16alignedAllocatorINS_7iScalarINS_9Grid_simdIjNS_12Optimization3vecIjEEEEEEE8allocateEmPKv
0000000000000000  w    F .text._ZN4Grid12devAllocatorINS_12StencilEntryEE10deallocateEPS1_m	000000000000100e _ZN4Grid12devAllocatorINS_12StencilEntryEE10deallocateEPS1_m
0000000000000000  w    F .text._ZN4Grid16alignedAllocatorINS_12StencilEntryEE10deallocateEPS1_m	000000000000100e _ZN4Grid16alignedAllocatorINS_12StencilEntryEE10deallocateEPS1_m
0000000000000000  w    F .text._ZN4Grid12devAllocatorISt4pairIiiEE10deallocateEPS2_m	000000000000100f _ZN4Grid12devAllocatorISt4pairIiiEE10deallocateEPS2_m
0000000000000000         *UND*	0000000000000000 _ZN4Grid13MemoryManager15AcceleratorFreeEPvm
0000000000000000  w    F .text._ZN4Grid7LatticeINS_7iScalarINS_7iVectorINS2_INS_9Grid_simdISt7complexIdENS_12Optimization3vecIdEEEELi3EEELi4EEEEEE6resizeEm	00000000000000e3 _ZN4Grid7LatticeINS_7iScalarINS_7iVectorINS2_INS_9Grid_simdISt7complexIdENS_12Optimization3vecIdEEEELi3EEELi4EEEEEE6resizeEm
0000000000000000  w    F .text._ZN4Grid7LatticeINS_7iScalarINS_7iVectorINS2_INS_9Grid_simdISt7complexIdENS_12Optimization3vecIdEEEELi3EEELi4EEEEEE11SetViewModeENS_8ViewModeE	00000000000001d8 _ZN4Grid7LatticeINS_7iScalarINS_7iVectorINS2_INS_9Grid_simdISt7complexIdENS_12Optimization3vecIdEEEELi3EEELi4EEEEEE11SetViewModeENS_8ViewModeE
0000000000000000  w    F .text._ZN4Grid16alignedAllocatorINS_7iScalarINS_7iVectorINS2_INS_9Grid_simdISt7complexIdENS_12Optimization3vecIdEEEELi3EEELi4EEEEEE8allocateEmPKv	000000000000103f _ZN4Grid16alignedAllocatorINS_7iScalarINS_7iVectorINS2_INS_9Grid_simdISt7complexIdENS_12Optimization3vecIdEEEELi3EEELi4EEEEEE8allocateEmPKv
0000000000000000  w    F .text._ZN4Grid11LatticeViewINS_7iScalarINS_7iVectorINS2_INS_9Grid_simdISt7complexIdENS_12Optimization3vecIdEEEELi3EEELi4EEEEEEC2ERKNS_18LatticeAcceleratorISC_EENS_8ViewModeE	00000000000000c5 _ZN4Grid11LatticeViewINS_7iScalarINS_7iVectorINS2_INS_9Grid_simdISt7complexIdENS_12Optimization3vecIdEEEELi3EEELi4EEEEEEC2ERKNS_18LatticeAcceleratorISC_EENS_8ViewModeE
0000000000000000  w    F .text._ZN4Grid11LatticeViewINS_7iScalarINS_7iVectorINS2_INS_9Grid_simdISt7complexIdENS_12Optimization3vecIdEEEELi3EEELi4EEEEEE8ViewOpenENS_8ViewModeE	0000000000000225 _ZN4Grid11LatticeViewINS_7iScalarINS_7iVectorINS2_INS_9Grid_simdISt7complexIdENS_12Optimization3vecIdEEEELi3EEELi4EEEEEE8ViewOpenENS_8ViewModeE
0000000000000000  w    F .text._ZNK4Grid7LatticeINS_7iVectorINS_7iScalarINS_7iMatrixINS_9Grid_simdISt7complexIdENS_12Optimization3vecIdEEEELi3EEEEELi4EEEE4ViewENS_8ViewModeE	00000000000000b6 _ZNK4Grid7LatticeINS_7iVectorINS_7iScalarINS_7iMatrixINS_9Grid_simdISt7complexIdENS_12Optimization3vecIdEEEELi3EEEEELi4EEEE4ViewENS_8ViewModeE
0000000000000000  w    F .text._ZN4Grid11LatticeViewINS_7iVectorINS_7iScalarINS_7iMatrixINS_9Grid_simdISt7complexIdENS_12Optimization3vecIdEEEELi3EEEEELi4EEEEC2ERKNS_18LatticeAcceleratorISD_EENS_8ViewModeE	00000000000000c5 _ZN4Grid11LatticeViewINS_7iVectorINS_7iScalarINS_7iMatrixINS_9Grid_simdISt7complexIdENS_12Optimization3vecIdEEEELi3EEEEELi4EEEEC2ERKNS_18LatticeAcceleratorISD_EENS_8ViewModeE
0000000000000000  w    F .text._ZN4Grid11LatticeViewINS_7iVectorINS_7iScalarINS_7iMatrixINS_9Grid_simdISt7complexIdENS_12Optimization3vecIdEEEELi3EEEEELi4EEEE8ViewOpenENS_8ViewModeE	0000000000000225 _ZN4Grid11LatticeViewINS_7iVectorINS_7iScalarINS_7iMatrixINS_9Grid_simdISt7complexIdENS_12Optimization3vecIdEEEELi3EEEEELi4EEEE8ViewOpenENS_8ViewModeE
0000000000000000  w    O .rodata._ZTVN4Grid13GridCartesianE	0000000000000068 _ZTVN4Grid13GridCartesianE
0000000000000000         *UND*	0000000000000000 _ZN4Grid21CartesianCommunicatorC2ERKNS_17AcceleratorVectorIiLi8EEERKS0_Ri
0000000000000000  w    F .text._ZN4Grid13GridCartesian4InitERKNS_17AcceleratorVectorIiLi8EEES4_S4_	0000000000000451 _ZN4Grid13GridCartesian4InitERKNS_17AcceleratorVectorIiLi8EEES4_S4_
0000000000000000  w    F .text._ZN4Grid7LatticeINS_7iScalarINS1_INS1_INS_9Grid_simdISt7complexIdENS_12Optimization3vecIdEEEEEEEEEEE6resizeEm	00000000000000e3 _ZN4Grid7LatticeINS_7iScalarINS1_INS1_INS_9Grid_simdISt7complexIdENS_12Optimization3vecIdEEEEEEEEEEE6resizeEm
0000000000000000  w    F .text._ZN4Grid7LatticeINS_7iScalarINS1_INS1_INS_9Grid_simdISt7complexIdENS_12Optimization3vecIdEEEEEEEEEEE11SetViewModeENS_8ViewModeE	00000000000001d8 _ZN4Grid7LatticeINS_7iScalarINS1_INS1_INS_9Grid_simdISt7complexIdENS_12Optimization3vecIdEEEEEEEEEEE11SetViewModeENS_8ViewModeE
0000000000000000  w    F .text._ZNK4Grid7LatticeINS_7iScalarINS1_INS1_INS_9Grid_simdISt7complexIdENS_12Optimization3vecIdEEEEEEEEEEE4ViewENS_8ViewModeE	00000000000000b6 _ZNK4Grid7LatticeINS_7iScalarINS1_INS1_INS_9Grid_simdISt7complexIdENS_12Optimization3vecIdEEEEEEEEEEE4ViewENS_8ViewModeE
0000000000000000  w    F .text._ZNK4Grid7LatticeINS_7iScalarINS_7iVectorINS2_INS_9Grid_simdISt7complexIdENS_12Optimization3vecIdEEEELi3EEELi4EEEEEE4ViewENS_8ViewModeE	00000000000000b6 _ZNK4Grid7LatticeINS_7iScalarINS_7iVectorINS2_INS_9Grid_simdISt7complexIdENS_12Optimization3vecIdEEEELi3EEELi4EEEEEE4ViewENS_8ViewModeE
0000000000000000  w    F .text._ZN4Grid10ViewCloserINS_11LatticeViewINS_7iScalarINS2_INS2_INS_9Grid_simdISt7complexIdENS_12Optimization3vecIdEEEEEEEEEEEEED2Ev	000000000000001a _ZN4Grid10ViewCloserINS_11LatticeViewINS_7iScalarINS2_INS2_INS_9Grid_simdISt7complexIdENS_12Optimization3vecIdEEEEEEEEEEEEED2Ev
00000000000001e9  w    O .rodata	0000000000000001 .__omp_offloading_73_1e118ab9__ZN4Grid7LatticeINS_7iScalarINS1_INS1_INS_9Grid_simdISt7complexIdENS_12Optimization3vecIdEEEEEEEEEEEaSINS_9BinaryAddESC_NS_23LatticeBinaryExpressionINS_9BinaryMulENSF_ISG_dSC_EEdEEEERSC_RKNSF_IT_T0_T1_EE_l166.region_id
0000000000000000  w    F .text._ZN4Grid16CBFromExpressionINS_11LatticeViewINS_7iScalarINS_7iVectorINS3_INS_9Grid_simdISt7complexIdENS_12Optimization3vecIdEEEELi3EEELi4EEEEEEELPSE_0EEEvRiRKT_	0000000000000164 _ZN4Grid16CBFromExpressionINS_11LatticeViewINS_7iScalarINS_7iVectorINS3_INS_9Grid_simdISt7complexIdENS_12Optimization3vecIdEEEELi3EEELi4EEEEEEELPSE_0EEEvRiRKT_
00000000000001ea  w    O .rodata	0000000000000001 .__omp_offloading_73_1e118ab9__ZN4Grid7LatticeINS_7iScalarINS_7iVectorINS2_INS_9Grid_simdISt7complexIdENS_12Optimization3vecIdEEEELi3EEELi4EEEEEEaSINS_9BinaryMulENS_22LatticeUnaryExpressionINS_8UnaryExpENS_23LatticeBinaryExpressionISF_NSI_ISF_S5_NS0_INS1_INS1_INS1_IS9_EEEEEEEEEEdEEEESD_EERSD_RKNSI_IT_T0_T1_EE_l166.region_id
0000000000000228  w    O .rodata	0000000000000001 .__omp_offloading_73_1e118ab9__ZN4Grid7LatticeINS_7iScalarINS_7iVectorINS2_INS_9Grid_simdISt7complexIdENS_12Optimization3vecIdEEEELi3EEELi4EEEEEEaSINS_9BinaryMulESD_NS_22LatticeUnaryExpressionINS_8UnaryExpENS_23LatticeBinaryExpressionISF_S5_NS0_INS1_INS1_INS1_IS9_EEEEEEEEEEEEEERSD_RKNSI_IT_T0_T1_EE_l166.region_id
0000000000000000  w    F .text._ZN4Grid13GridCartesianD0Ev	0000000000000012 _ZN4Grid13GridCartesianD0Ev
0000000000000000         *UND*	0000000000000000 _ZN4Grid21CartesianCommunicatorD2Ev
0000000000000000  w    F .text._ZN4Grid13GridCartesian14CheckerBoardedEi	0000000000000003 _ZN4Grid13GridCartesian14CheckerBoardedEi
0000000000000000  w    F .text._ZN4Grid13GridCartesian12CheckerBoardERKNS_17AcceleratorVectorIiLi8EEE	0000000000000003 _ZN4Grid13GridCartesian12CheckerBoardERKNS_17AcceleratorVectorIiLi8EEE
0000000000000000  w    F .text._ZN4Grid13GridCartesian23CheckerBoardDestinationEiii	0000000000000003 _ZN4Grid13GridCartesian23CheckerBoardDestinationEiii
0000000000000000  w    F .text._ZN4Grid13GridCartesian17CheckerBoardShiftEiiii	0000000000000003 _ZN4Grid13GridCartesian17CheckerBoardShiftEiiii
0000000000000000  w    F .text._ZN4Grid13GridCartesian22CheckerBoardShiftForCBEiiii	0000000000000003 _ZN4Grid13GridCartesian22CheckerBoardShiftForCBEiiii
0000000000000000  w    F .text._ZN4Grid13GridCartesian22CheckerBoardFromOindexEi	0000000000000003 _ZN4Grid13GridCartesian22CheckerBoardFromOindexEi
0000000000000000  w    F .text._ZN4Grid13GridCartesian27CheckerBoardFromOindexTableEi	0000000000000003 _ZN4Grid13GridCartesian27CheckerBoardFromOindexTableEi
0000000000000000  w    F .text._ZN4Grid8GridBase6oIndexERNS_17AcceleratorVectorIiLi8EEE	0000000000000096 _ZN4Grid8GridBase6oIndexERNS_17AcceleratorVectorIiLi8EEE
0000000000000000  w    F .text._ZN4Grid8GridBase6iIndexERNS_17AcceleratorVectorIiLi8EEE	0000000000000096 _ZN4Grid8GridBase6iIndexERNS_17AcceleratorVectorIiLi8EEE
0000000000000000  w    F .text._ZN4Grid16alignedAllocatorINS_7iScalarINS1_INS1_INS_9Grid_simdISt7complexIdENS_12Optimization3vecIdEEEEEEEEEEE8allocateEmPKv	000000000000103e _ZN4Grid16alignedAllocatorINS_7iScalarINS1_INS1_INS_9Grid_simdISt7complexIdENS_12Optimization3vecIdEEEEEEEEEEE8allocateEmPKv
0000000000000000  w    F .text._ZN4Grid11LatticeViewINS_7iScalarINS1_INS1_INS_9Grid_simdISt7complexIdENS_12Optimization3vecIdEEEEEEEEEEEC2ERKNS_18LatticeAcceleratorISB_EENS_8ViewModeE	00000000000000c5 _ZN4Grid11LatticeViewINS_7iScalarINS1_INS1_INS_9Grid_simdISt7complexIdENS_12Optimization3vecIdEEEEEEEEEEEC2ERKNS_18LatticeAcceleratorISB_EENS_8ViewModeE
0000000000000000         *UND*	0000000000000000 cexp
0000000000000000  w    F .text._ZN4Grid11conformableINS_7iScalarINS_7iVectorINS2_INS_9Grid_simdISt7complexIdENS_12Optimization3vecIdEEEELi3EEELi4EEEEESC_EEvRKNS_7LatticeIT_EERKNSD_IT0_EE	0000000000000174 _ZN4Grid11conformableINS_7iScalarINS_7iVectorINS2_INS_9Grid_simdISt7complexIdENS_12Optimization3vecIdEEEELi3EEELi4EEEEESC_EEvRKNS_7LatticeIT_EERKNSD_IT0_EE
0000000000000208  w    O .rodata	0000000000000001 .__omp_offloading_73_1e118ab9__ZN4Grid7LatticeINS_7iScalarINS_7iVectorINS2_INS_9Grid_simdISt7complexIdENS_12Optimization3vecIdEEEELi3EEELi4EEEEEEaSERKSD__l331.region_id
0000000000000000         *UND*	0000000000000000 _ZNSt8ios_base4InitC1Ev
0000000000000000         *UND*	0000000000000000 _ZNSt8ios_base4InitD1Ev
0000000000000000         *UND*	0000000000000000 .hidden __dso_handle
0000000000000000         *UND*	0000000000000000 __cxa_atexit
0000000000000000         *UND*	0000000000000000 __tgt_register_requires
0000000000000000  w    O .rodata._ZTIN4Grid13WilsonFermionINS_10WilsonImplINS_9Grid_simdISt7complexIdENS_12Optimization3vecIdEEEENS_14FundamentalRepILi3EEENS_9CoeffRealEEEEE	0000000000000038 _ZTIN4Grid13WilsonFermionINS_10WilsonImplINS_9Grid_simdISt7complexIdENS_12Optimization3vecIdEEEENS_14FundamentalRepILi3EEENS_9CoeffRealEEEEE
0000000000000000         *UND*	0000000000000000 _ZN4Grid13WilsonFermionINS_10WilsonImplINS_9Grid_simdISt7complexIdENS_12Optimization3vecIdEEEENS_14FundamentalRepILi3EEENS_9CoeffRealEEEE1MERKNS_7LatticeINS_7iScalarINS_7iVectorINSG_IS8_Li3EEELi4EEEEEEERSK_
0000000000000000         *UND*	0000000000000000 _ZN4Grid13WilsonFermionINS_10WilsonImplINS_9Grid_simdISt7complexIdENS_12Optimization3vecIdEEEENS_14FundamentalRepILi3EEENS_9CoeffRealEEEE4MdagERKNS_7LatticeINS_7iScalarINS_7iVectorINSG_IS8_Li3EEELi4EEEEEEERSK_
0000000000000000         *UND*	0000000000000000 _ZN4Grid13WilsonFermionINS_10WilsonImplINS_9Grid_simdISt7complexIdENS_12Optimization3vecIdEEEENS_14FundamentalRepILi3EEENS_9CoeffRealEEEE4MdirERKNS_7LatticeINS_7iScalarINS_7iVectorINSG_IS8_Li3EEELi4EEEEEEERSK_ii
0000000000000000         *UND*	0000000000000000 _ZN4Grid13WilsonFermionINS_10WilsonImplINS_9Grid_simdISt7complexIdENS_12Optimization3vecIdEEEENS_14FundamentalRepILi3EEENS_9CoeffRealEEEE7MdirAllERKNS_7LatticeINS_7iScalarINS_7iVectorINSG_IS8_Li3EEELi4EEEEEEERSt6vectorISK_SaISK_EE
0000000000000000         *UND*	0000000000000000 _ZN4Grid13WilsonFermionINS_10WilsonImplINS_9Grid_simdISt7complexIdENS_12Optimization3vecIdEEEENS_14FundamentalRepILi3EEENS_9CoeffRealEEEE5MeooeERKNS_7LatticeINS_7iScalarINS_7iVectorINSG_IS8_Li3EEELi4EEEEEEERSK_
0000000000000000         *UND*	0000000000000000 _ZN4Grid13WilsonFermionINS_10WilsonImplINS_9Grid_simdISt7complexIdENS_12Optimization3vecIdEEEENS_14FundamentalRepILi3EEENS_9CoeffRealEEEE5MooeeERKNS_7LatticeINS_7iScalarINS_7iVectorINSG_IS8_Li3EEELi4EEEEEEERSK_
0000000000000000         *UND*	0000000000000000 _ZN4Grid13WilsonFermionINS_10WilsonImplINS_9Grid_simdISt7complexIdENS_12Optimization3vecIdEEEENS_14FundamentalRepILi3EEENS_9CoeffRealEEEE8MooeeInvERKNS_7LatticeINS_7iScalarINS_7iVectorINSG_IS8_Li3EEELi4EEEEEEERSK_
0000000000000000         *UND*	0000000000000000 _ZN4Grid13WilsonFermionINS_10WilsonImplINS_9Grid_simdISt7complexIdENS_12Optimization3vecIdEEEENS_14FundamentalRepILi3EEENS_9CoeffRealEEEE8MeooeDagERKNS_7LatticeINS_7iScalarINS_7iVectorINSG_IS8_Li3EEELi4EEEEEEERSK_
0000000000000000         *UND*	0000000000000000 _ZN4Grid13WilsonFermionINS_10WilsonImplINS_9Grid_simdISt7complexIdENS_12Optimization3vecIdEEEENS_14FundamentalRepILi3EEENS_9CoeffRealEEEE8MooeeDagERKNS_7LatticeINS_7iScalarINS_7iVectorINSG_IS8_Li3EEELi4EEEEEEERSK_
0000000000000000         *UND*	0000000000000000 _ZN4Grid13WilsonFermionINS_10WilsonImplINS_9Grid_simdISt7complexIdENS_12Optimization3vecIdEEEENS_14FundamentalRepILi3EEENS_9CoeffRealEEEE11MooeeInvDagERKNS_7LatticeINS_7iScalarINS_7iVectorINSG_IS8_Li3EEELi4EEEEEEERSK_
0000000000000000         *UND*	0000000000000000 _ZN4Grid13WilsonFermionINS_10WilsonImplINS_9Grid_simdISt7complexIdENS_12Optimization3vecIdEEEENS_14FundamentalRepILi3EEENS_9CoeffRealEEEE4DhopERKNS_7LatticeINS_7iScalarINS_7iVectorINSG_IS8_Li3EEELi4EEEEEEERSK_i
0000000000000000         *UND*	0000000000000000 _ZN4Grid13WilsonFermionINS_10WilsonImplINS_9Grid_simdISt7complexIdENS_12Optimization3vecIdEEEENS_14FundamentalRepILi3EEENS_9CoeffRealEEEE6DhopOEERKNS_7LatticeINS_7iScalarINS_7iVectorINSG_IS8_Li3EEELi4EEEEEEERSK_i
0000000000000000         *UND*	0000000000000000 _ZN4Grid13WilsonFermionINS_10WilsonImplINS_9Grid_simdISt7complexIdENS_12Optimization3vecIdEEEENS_14FundamentalRepILi3EEENS_9CoeffRealEEEE6DhopEOERKNS_7LatticeINS_7iScalarINS_7iVectorINSG_IS8_Li3EEELi4EEEEEEERSK_i
0000000000000000         *UND*	0000000000000000 _ZN4Grid13WilsonFermionINS_10WilsonImplINS_9Grid_simdISt7complexIdENS_12Optimization3vecIdEEEENS_14FundamentalRepILi3EEENS_9CoeffRealEEEE7DhopDirERKNS_7LatticeINS_7iScalarINS_7iVectorINSG_IS8_Li3EEELi4EEEEEEERSK_ii
0000000000000000         *UND*	0000000000000000 _ZN4Grid13WilsonFermionINS_10WilsonImplINS_9Grid_simdISt7complexIdENS_12Optimization3vecIdEEEENS_14FundamentalRepILi3EEENS_9CoeffRealEEEE9DhopDerivERNS_7LatticeINS_7iVectorINS_7iScalarINS_7iMatrixIS8_Li3EEEEELi4EEEEERKNSE_INSG_INSF_INSF_IS8_Li3EEELi4EEEEEEESS_i
0000000000000000         *UND*	0000000000000000 _ZN4Grid13WilsonFermionINS_10WilsonImplINS_9Grid_simdISt7complexIdENS_12Optimization3vecIdEEEENS_14FundamentalRepILi3EEENS_9CoeffRealEEEE11DhopDerivEOERNS_7LatticeINS_7iVectorINS_7iScalarINS_7iMatrixIS8_Li3EEEEELi4EEEEERKNSE_INSG_INSF_INSF_IS8_Li3EEELi4EEEEEEESS_i
0000000000000000         *UND*	0000000000000000 _ZN4Grid13WilsonFermionINS_10WilsonImplINS_9Grid_simdISt7complexIdENS_12Optimization3vecIdEEEENS_14FundamentalRepILi3EEENS_9CoeffRealEEEE11DhopDerivOEERNS_7LatticeINS_7iVectorINS_7iScalarINS_7iMatrixIS8_Li3EEEEELi4EEEEERKNSE_INSG_INSF_INSF_IS8_Li3EEELi4EEEEEEESS_i
0000000000000000         *UND*	0000000000000000 _ZN4Grid13WilsonFermionINS_10WilsonImplINS_9Grid_simdISt7complexIdENS_12Optimization3vecIdEEEENS_14FundamentalRepILi3EEENS_9CoeffRealEEEE23MomentumSpacePropagatorERNS_7LatticeINS_7iScalarINS_7iVectorINSG_IS8_Li3EEELi4EEEEEEERKSK_dSt6vectorIdSaIdEE
0000000000000000         *UND*	0000000000000000 _ZN4Grid13WilsonFermionINS_10WilsonImplINS_9Grid_simdISt7complexIdENS_12Optimization3vecIdEEEENS_14FundamentalRepILi3EEENS_9CoeffRealEEEE11ImportGaugeERKNS_7LatticeINS_7iVectorINS_7iScalarINS_7iMatrixIS8_Li3EEEEELi4EEEEE
0000000000000000         *UND*	0000000000000000 _ZN4Grid13WilsonFermionINS_10WilsonImplINS_9Grid_simdISt7complexIdENS_12Optimization3vecIdEEEENS_14FundamentalRepILi3EEENS_9CoeffRealEEEE24ContractConservedCurrentERNS_7LatticeINS_7iScalarINS_7iMatrixINSG_IS8_Li3EEELi4EEEEEEESL_SL_SL_NS_7CurrentEj
0000000000000000  w    O .rodata._ZTSN4Grid13WilsonFermionINS_10WilsonImplINS_9Grid_simdISt7complexIdENS_12Optimization3vecIdEEEENS_14FundamentalRepILi3EEENS_9CoeffRealEEEEE	0000000000000089 _ZTSN4Grid13WilsonFermionINS_10WilsonImplINS_9Grid_simdISt7complexIdENS_12Optimization3vecIdEEEENS_14FundamentalRepILi3EEENS_9CoeffRealEEEEE
0000000000000000  w    O .rodata._ZTSN4Grid13WilsonKernelsINS_10WilsonImplINS_9Grid_simdISt7complexIdENS_12Optimization3vecIdEEEENS_14FundamentalRepILi3EEENS_9CoeffRealEEEEE	0000000000000089 _ZTSN4Grid13WilsonKernelsINS_10WilsonImplINS_9Grid_simdISt7complexIdENS_12Optimization3vecIdEEEENS_14FundamentalRepILi3EEENS_9CoeffRealEEEEE
0000000000000000  w    O .rodata._ZTSN4Grid15FermionOperatorINS_10WilsonImplINS_9Grid_simdISt7complexIdENS_12Optimization3vecIdEEEENS_14FundamentalRepILi3EEENS_9CoeffRealEEEEE	000000000000008b _ZTSN4Grid15FermionOperatorINS_10WilsonImplINS_9Grid_simdISt7complexIdENS_12Optimization3vecIdEEEENS_14FundamentalRepILi3EEENS_9CoeffRealEEEEE
0000000000000000  w    O .rodata._ZTSN4Grid30CheckerBoardedSparseMatrixBaseINS_7LatticeINS_7iScalarINS_7iVectorINS3_INS_9Grid_simdISt7complexIdENS_12Optimization3vecIdEEEELi3EEELi4EEEEEEEEE	0000000000000099 _ZTSN4Grid30CheckerBoardedSparseMatrixBaseINS_7LatticeINS_7iScalarINS_7iVectorINS3_INS_9Grid_simdISt7complexIdENS_12Optimization3vecIdEEEELi3EEELi4EEEEEEEEE
0000000000000000  w    O .rodata._ZTSN4Grid16SparseMatrixBaseINS_7LatticeINS_7iScalarINS_7iVectorINS3_INS_9Grid_simdISt7complexIdENS_12Optimization3vecIdEEEELi3EEELi4EEEEEEEEE	000000000000008b _ZTSN4Grid16SparseMatrixBaseINS_7LatticeINS_7iScalarINS_7iVectorINS3_INS_9Grid_simdISt7complexIdENS_12Optimization3vecIdEEEELi3EEELi4EEEEEEEEE
0000000000000000  w    O .rodata._ZTIN4Grid16SparseMatrixBaseINS_7LatticeINS_7iScalarINS_7iVectorINS3_INS_9Grid_simdISt7complexIdENS_12Optimization3vecIdEEEELi3EEELi4EEEEEEEEE	0000000000000010 _ZTIN4Grid16SparseMatrixBaseINS_7LatticeINS_7iScalarINS_7iVectorINS3_INS_9Grid_simdISt7complexIdENS_12Optimization3vecIdEEEELi3EEELi4EEEEEEEEE
0000000000000000         *UND*	0000000000000000 _ZTVN10__cxxabiv117__class_type_infoE
0000000000000000  w    O .rodata._ZTIN4Grid30CheckerBoardedSparseMatrixBaseINS_7LatticeINS_7iScalarINS_7iVectorINS3_INS_9Grid_simdISt7complexIdENS_12Optimization3vecIdEEEELi3EEELi4EEEEEEEEE	0000000000000018 _ZTIN4Grid30CheckerBoardedSparseMatrixBaseINS_7LatticeINS_7iScalarINS_7iVectorINS3_INS_9Grid_simdISt7complexIdENS_12Optimization3vecIdEEEELi3EEELi4EEEEEEEEE
0000000000000000         *UND*	0000000000000000 _ZTVN10__cxxabiv120__si_class_type_infoE
0000000000000000  w    O .rodata._ZTSN4Grid10WilsonImplINS_9Grid_simdISt7complexIdENS_12Optimization3vecIdEEEENS_14FundamentalRepILi3EEENS_9CoeffRealEEE	0000000000000074 _ZTSN4Grid10WilsonImplINS_9Grid_simdISt7complexIdENS_12Optimization3vecIdEEEENS_14FundamentalRepILi3EEENS_9CoeffRealEEE
0000000000000000  w    O .rodata._ZTSN4Grid17PeriodicGaugeImplINS_14GaugeImplTypesINS_9Grid_simdISt7complexIdENS_12Optimization3vecIdEEEELi3ELi12EEEEE	0000000000000072 _ZTSN4Grid17PeriodicGaugeImplINS_14GaugeImplTypesINS_9Grid_simdISt7complexIdENS_12Optimization3vecIdEEEELi3ELi12EEEEE
0000000000000000  w    O .rodata._ZTSN4Grid14GaugeImplTypesINS_9Grid_simdISt7complexIdENS_12Optimization3vecIdEEEELi3ELi12EEE	0000000000000059 _ZTSN4Grid14GaugeImplTypesINS_9Grid_simdISt7complexIdENS_12Optimization3vecIdEEEELi3ELi12EEE
0000000000000000  w    O .rodata._ZTIN4Grid14GaugeImplTypesINS_9Grid_simdISt7complexIdENS_12Optimization3vecIdEEEELi3ELi12EEE	0000000000000010 _ZTIN4Grid14GaugeImplTypesINS_9Grid_simdISt7complexIdENS_12Optimization3vecIdEEEELi3ELi12EEE
0000000000000000  w    O .rodata._ZTIN4Grid17PeriodicGaugeImplINS_14GaugeImplTypesINS_9Grid_simdISt7complexIdENS_12Optimization3vecIdEEEELi3ELi12EEEEE	0000000000000018 _ZTIN4Grid17PeriodicGaugeImplINS_14GaugeImplTypesINS_9Grid_simdISt7complexIdENS_12Optimization3vecIdEEEELi3ELi12EEEEE
0000000000000000  w    O .rodata._ZTIN4Grid10WilsonImplINS_9Grid_simdISt7complexIdENS_12Optimization3vecIdEEEENS_14FundamentalRepILi3EEENS_9CoeffRealEEE	0000000000000018 _ZTIN4Grid10WilsonImplINS_9Grid_simdISt7complexIdENS_12Optimization3vecIdEEEENS_14FundamentalRepILi3EEENS_9CoeffRealEEE
0000000000000000  w    O .rodata._ZTIN4Grid15FermionOperatorINS_10WilsonImplINS_9Grid_simdISt7complexIdENS_12Optimization3vecIdEEEENS_14FundamentalRepILi3EEENS_9CoeffRealEEEEE	0000000000000038 _ZTIN4Grid15FermionOperatorINS_10WilsonImplINS_9Grid_simdISt7complexIdENS_12Optimization3vecIdEEEENS_14FundamentalRepILi3EEENS_9CoeffRealEEEEE
0000000000000000         *UND*	0000000000000000 _ZTVN10__cxxabiv121__vmi_class_type_infoE
0000000000000000  w    O .rodata._ZTSN4Grid19WilsonKernelsStaticE	000000000000001d _ZTSN4Grid19WilsonKernelsStaticE
0000000000000000  w    O .rodata._ZTIN4Grid19WilsonKernelsStaticE	0000000000000010 _ZTIN4Grid19WilsonKernelsStaticE
0000000000000000  w    O .rodata._ZTIN4Grid13WilsonKernelsINS_10WilsonImplINS_9Grid_simdISt7complexIdENS_12Optimization3vecIdEEEENS_14FundamentalRepILi3EEENS_9CoeffRealEEEEE	0000000000000038 _ZTIN4Grid13WilsonKernelsINS_10WilsonImplINS_9Grid_simdISt7complexIdENS_12Optimization3vecIdEEEENS_14FundamentalRepILi3EEENS_9CoeffRealEEEEE
0000000000000000  w    O .rodata._ZTSN4Grid19WilsonFermionStaticE	000000000000001d _ZTSN4Grid19WilsonFermionStaticE
0000000000000000  w    O .rodata._ZTIN4Grid19WilsonFermionStaticE	0000000000000010 _ZTIN4Grid19WilsonFermionStaticE
0000000000000000  w    O .rodata._ZTIN4Grid13GridCartesianE	0000000000000018 _ZTIN4Grid13GridCartesianE
0000000000000000  w    O .rodata._ZTSN4Grid13GridCartesianE	0000000000000017 _ZTSN4Grid13GridCartesianE
0000000000000000  w    O .rodata._ZTSN4Grid8GridBaseE	0000000000000011 _ZTSN4Grid8GridBaseE
0000000000000000  w    O .rodata._ZTSN4Grid10GridThreadE	0000000000000014 _ZTSN4Grid10GridThreadE
0000000000000000  w    O .rodata._ZTIN4Grid10GridThreadE	0000000000000010 _ZTIN4Grid10GridThreadE
0000000000000000  w    O .rodata._ZTIN4Grid8GridBaseE	0000000000000038 _ZTIN4Grid8GridBaseE
0000000000000000         *UND*	0000000000000000 _ZTIN4Grid21CartesianCommunicatorE
0000000000000000  w    O omp_offloading_entries	0000000000000020 .omp_offloading.entry.__omp_offloading_73_1e118af7__ZN4Grid10WilsonImplINS_9Grid_simdISt7complexIdENS_12Optimization3vecIdEEEENS_14FundamentalRepILi3EEENS_9CoeffRealEE13multLinkFieldINS_7LatticeINS_7iScalarINS_7iMatrixINSF_IS7_Li3EEELi4EEEEEEEEEvRT_RKNSD_INS_7iVectorINSE_ISG_EELi8EEEEERKSK_i_l116
0000000000000020  w    O omp_offloading_entries	0000000000000020 .omp_offloading.entry.__omp_offloading_73_1e118ab9__ZN4Grid7LatticeINS_7iScalarINS_7iMatrixINS2_INS_9Grid_simdISt7complexIdENS_12Optimization3vecIdEEEELi3EEELi4EEEEEEaSINS_9BinarySubENS_23LatticeBinaryExpressionINS_9BinaryMulESD_NS0_INS1_INS1_INS1_IS9_EEEEEEEEEENSG_ISH_NSG_ISH_NS_5GammaESD_EESL_EEEERSD_RKNSG_IT_T0_T1_EE_l166
0000000000000040  w    O omp_offloading_entries	0000000000000020 .omp_offloading.entry.__omp_offloading_73_1e118ab9__ZN4Grid7LatticeINS_7iScalarINS_7iMatrixINS2_INS_9Grid_simdISt7complexIdENS_12Optimization3vecIdEEEELi3EEELi4EEEEEEaSINS_12TrinaryWhereENS0_INS1_INS3_IjNS7_IjEEEEEEEESD_SD_EERSD_RKNS_24LatticeTrinaryExpressionIT_T0_T1_T2_EE_l190
0000000000000060  w    O omp_offloading_entries	0000000000000020 .omp_offloading.entry.__omp_offloading_73_1e118ab9__ZN4Grid7LatticeINS_7iScalarINS1_INS1_INS_9Grid_simdISt7complexIdENS_12Optimization3vecIdEEEEEEEEEEEaSINS_9BinaryAddESC_NS_23LatticeBinaryExpressionINS_9BinaryMulENSF_ISG_dSC_EEdEEEERSC_RKNSF_IT_T0_T1_EE_l166
0000000000000080  w    O omp_offloading_entries	0000000000000020 .omp_offloading.entry.__omp_offloading_73_1e118ab9__ZN4Grid7LatticeINS_7iScalarINS_7iVectorINS2_INS_9Grid_simdISt7complexIdENS_12Optimization3vecIdEEEELi3EEELi4EEEEEEaSINS_9BinaryMulENS_22LatticeUnaryExpressionINS_8UnaryExpENS_23LatticeBinaryExpressionISF_NSI_ISF_S5_NS0_INS1_INS1_INS1_IS9_EEEEEEEEEEdEEEESD_EERSD_RKNSI_IT_T0_T1_EE_l166
00000000000000a0  w    O omp_offloading_entries	0000000000000020 .omp_offloading.entry.__omp_offloading_73_1e118ab9__ZN4Grid7LatticeINS_7iScalarINS_7iVectorINS2_INS_9Grid_simdISt7complexIdENS_12Optimization3vecIdEEEELi3EEELi4EEEEEEaSERKSD__l331
00000000000000c0  w    O omp_offloading_entries	0000000000000020 .omp_offloading.entry.__omp_offloading_73_1e118ab9__ZN4Grid7LatticeINS_7iScalarINS_7iVectorINS2_INS_9Grid_simdISt7complexIdENS_12Optimization3vecIdEEEELi3EEELi4EEEEEEaSINS_9BinaryMulESD_NS_22LatticeUnaryExpressionINS_8UnaryExpENS_23LatticeBinaryExpressionISF_S5_NS0_INS1_INS1_INS1_IS9_EEEEEEEEEEEEEERSD_RKNSI_IT_T0_T1_EE_l166
0000000000000000         *UND*	0000000000000000 __gxx_personality_v0
